; generated by Component: ARM Compiler 5.06 update 4 (build 422) Tool: ArmCC [4d3604]
; commandline ArmCC [--c99 --list --split_sections --debug -c --asm --interleave --library_type=standardlib -odebug\main.o --asm_dir=.\output\ --list_dir=.\output\ --depend=debug\main.d --cpu=Cortex-M4.fp --apcs=interwork -O0 --diag_suppress=9931,66,1296,186 -I.\SRC\eGFX -I.\SRC\eGFX\Drivers -I.\SRC\eGFX\Fonts -I.\SRC\Board -I.\SRC\System\CMSIS\Include -I.\SRC\System\utilities -I.\SRC\Drivers -I.\SRC\System -I.\SRC\eGFX\Fonts\OCR_A_Extended__20px__Bold__SingleBitPerPixelGridFit_1BPP -I.\SRC\Audio -I.\SRC\eGFX\Sprites -I.\SRC\eGFX\Fonts\Consolas__26px__Regular__AntiAliasGridFit_1BPP -I.\SRC\eGFX\Fonts\Magneto__26px__Regular__AntiAliasGridFit_16BPP_565 -I.\SRC\eGFX\Fonts\Arial__23px__Regular__SystemDefault_1BPP -I.\RTE\_Lab6 -IC:\Keil_v5\ARM\PACK\Keil\LPC54000_DFP\2.2.0\LPCOpen\lpc5460x\chip_5460x\inc -IC:\Keil_v5\ARM\CMSIS\Include -D__MICROLIB -D__UVISION_VERSION=523 -DCHIP_LPC5460X -DDEBUG -DCPU_LPC54608 -DCPU_LPC54608J512ET180=1 -DARM_MATH_CM4 -D__FPU_PRESENT -DCORE_M4 --omf_browse=debug\main.crf SRC\main.c]
                          THUMB

                          AREA ||i.CLOCK_EnableClock||, CODE, READONLY, ALIGN=2

                  CLOCK_EnableClock PROC
;;;705    
;;;706    static inline void CLOCK_EnableClock(clock_ip_name_t clk)
000000  0a01              LSRS     r1,r0,#8
;;;707    {
;;;708        uint32_t index = CLK_GATE_ABSTRACT_REG_OFFSET(clk);
;;;709        if (index < 3)
000002  2903              CMP      r1,#3
000004  d205              BCS      |L1.18|
;;;710        {
;;;711            SYSCON->AHBCLKCTRLSET[index] = (1U << CLK_GATE_ABSTRACT_BITS_SHIFT(clk));
000006  2201              MOVS     r2,#1
000008  4082              LSLS     r2,r2,r0
00000a  4b05              LDR      r3,|L1.32|
00000c  f8432021          STR      r2,[r3,r1,LSL #2]
000010  e005              B        |L1.30|
                  |L1.18|
;;;712        }
;;;713        else
;;;714        {
;;;715            SYSCON->ASYNCAPBCTRL = SYSCON_ASYNCAPBCTRL_ENABLE(1);
000012  2201              MOVS     r2,#1
000014  0793              LSLS     r3,r2,#30
000016  64da              STR      r2,[r3,#0x4c]
;;;716            ASYNC_SYSCON->ASYNCAPBCLKCTRLSET = (1U << CLK_GATE_ABSTRACT_BITS_SHIFT(clk));
000018  4082              LSLS     r2,r2,r0
00001a  4b02              LDR      r3,|L1.36|
00001c  615a              STR      r2,[r3,#0x14]
                  |L1.30|
;;;717        }
;;;718    }
00001e  4770              BX       lr
;;;719    
                          ENDP

                  |L1.32|
                          DCD      0x40000220
                  |L1.36|
                          DCD      0x40040000

                          AREA ||i.CirclesVisual||, CODE, READONLY, ALIGN=2

                  CirclesVisual PROC
;;;251    
;;;252    void CirclesVisual()
000000  b500              PUSH     {lr}
;;;253    {			
000002  b091              SUB      sp,sp,#0x44
;;;254    	if(NextBufferReady == 1)
000004  48fe              LDR      r0,|L2.1024|
000006  6800              LDR      r0,[r0,#0]  ; NextBufferReady
000008  2801              CMP      r0,#1
00000a  d17d              BNE      |L2.264|
;;;255    			{
;;;256    				
;;;257    				GPIO->SET[TEST2_PORT]=1<<TEST2_PIN;
00000c  0541              LSLS     r1,r0,#21
00000e  48fd              LDR      r0,|L2.1028|
000010  60c1              STR      r1,[r0,#0xc]
;;;258    	
;;;259    				arm_rfft_fast_f32(&MyFFT,
000012  2300              MOVS     r3,#0
000014  4afc              LDR      r2,|L2.1032|
000016  48fd              LDR      r0,|L2.1036|
000018  6801              LDR      r1,[r0,#0]  ; MicBuffer
00001a  48fd              LDR      r0,|L2.1040|
00001c  f7fffffe          BL       arm_rfft_fast_f32
;;;260    													  (float *)MicBuffer,
;;;261    													  FFT_RawDataOut,0);
;;;262    				
;;;263    				GPIO->CLR[TEST2_PORT]=1<<TEST2_PIN;
000020  f44f1100          MOV      r1,#0x200000
000024  48f7              LDR      r0,|L2.1028|
000026  3080              ADDS     r0,r0,#0x80
000028  60c1              STR      r1,[r0,#0xc]
;;;264    														
;;;265    				 arm_cmplx_mag_squared_f32(FFT_RawDataOut,
00002a  1542              ASRS     r2,r0,#21
00002c  49f9              LDR      r1,|L2.1044|
00002e  48f6              LDR      r0,|L2.1032|
000030  f7fffffe          BL       arm_cmplx_mag_squared_f32
;;;266    																	 FFT_PowerSpectrum,
;;;267    																	 BUFFER_SIZE/2
;;;268    																	);
;;;269    										
;;;270    				eGFX_ImagePlane_Clear(&eGFX_BackBuffer);
000034  48f8              LDR      r0,|L2.1048|
000036  f7fffffe          BL       eGFX_ImagePlane_Clear
;;;271    														
;;;272    /*				// Shattered Button						
;;;273    				eGFX_Blit(&eGFX_BackBuffer,
;;;274    								10, //x coordinate
;;;275    								eGFX_PHYSICAL_SCREEN_SIZE_Y - 60,			//y coordinate 
;;;276    								&Sprite_16BPP_565_piramid_silver);
;;;277    */
;;;278    				// Equalizer Button
;;;279    				eGFX_Blit(&eGFX_BackBuffer,
00003a  4bf8              LDR      r3,|L2.1052|
00003c  2200              MOVS     r2,#0
00003e  210a              MOVS     r1,#0xa
000040  48f5              LDR      r0,|L2.1048|
000042  f7fffffe          BL       eGFX_Blit
;;;280    								10, //x coordinate
;;;281    								0,			//y coordinate 
;;;282    								&Sprite_16BPP_565_equalizer);
;;;283    				
;;;284    				for(int i=0;i<eGFX_PHYSICAL_SCREEN_SIZE_X;i++)
000046  2000              MOVS     r0,#0
000048  9010              STR      r0,[sp,#0x40]
00004a  e3ee              B        |L2.2090|
                  |L2.76|
;;;285    				{
;;;286    								float Point1 = (VolumeSliderValue*MicBuffer[i-1]*(eGFX_PHYSICAL_SCREEN_SIZE_X/2));
00004c  9810              LDR      r0,[sp,#0x40]
00004e  1e40              SUBS     r0,r0,#1
000050  49ee              LDR      r1,|L2.1036|
000052  6809              LDR      r1,[r1,#0]  ; MicBuffer
000054  eb010080          ADD      r0,r1,r0,LSL #2
000058  ed900a00          VLDR     s0,[r0,#0]
00005c  48f0              LDR      r0,|L2.1056|
00005e  edd00a00          VLDR     s1,[r0,#0]
000062  ee200a20          VMUL.F32 s0,s0,s1
000066  eddf0aef          VLDR     s1,|L2.1060|
00006a  ee200a20          VMUL.F32 s0,s0,s1
00006e  ed8d0a0f          VSTR     s0,[sp,#0x3c]
;;;287    
;;;288    								float Point2 = (VolumeSliderValue*MicBuffer[i]*(eGFX_PHYSICAL_SCREEN_SIZE_Y/2));
000072  48e6              LDR      r0,|L2.1036|
000074  6801              LDR      r1,[r0,#0]  ; MicBuffer
000076  9810              LDR      r0,[sp,#0x40]
000078  eb010080          ADD      r0,r1,r0,LSL #2
00007c  ed900a00          VLDR     s0,[r0,#0]
000080  48e7              LDR      r0,|L2.1056|
000082  edd00a00          VLDR     s1,[r0,#0]
000086  ee200a20          VMUL.F32 s0,s0,s1
00008a  eddf0ae7          VLDR     s1,|L2.1064|
00008e  ee200a20          VMUL.F32 s0,s0,s1
000092  ed8d0a0e          VSTR     s0,[sp,#0x38]
;;;289    								
;;;290    								float Point3 = (VolumeSliderValue*MicBuffer[i-1]*(eGFX_PHYSICAL_SCREEN_SIZE_X/1.5));
000096  9810              LDR      r0,[sp,#0x40]
000098  1e40              SUBS     r0,r0,#1
00009a  49dc              LDR      r1,|L2.1036|
00009c  6809              LDR      r1,[r1,#0]  ; MicBuffer
00009e  eb010080          ADD      r0,r1,r0,LSL #2
0000a2  ed900a00          VLDR     s0,[r0,#0]
0000a6  48de              LDR      r0,|L2.1056|
0000a8  edd00a00          VLDR     s1,[r0,#0]
0000ac  ee200a20          VMUL.F32 s0,s0,s1
0000b0  ed8d0a05          VSTR     s0,[sp,#0x14]
0000b4  9805              LDR      r0,[sp,#0x14]
0000b6  f7fffffe          BL       __aeabi_f2d
0000ba  ed9f0bdc          VLDR     d0,|L2.1068|
0000be  ec532b10          VMOV     r2,r3,d0
0000c2  e9cd0106          STRD     r0,r1,[sp,#0x18]
0000c6  ed9d0b06          VLDR     d0,[sp,#0x18]
0000ca  ec510b10          VMOV     r0,r1,d0
0000ce  f7fffffe          BL       __aeabi_dmul
0000d2  e9cd0108          STRD     r0,r1,[sp,#0x20]
0000d6  ed9d0b08          VLDR     d0,[sp,#0x20]
0000da  ec510b10          VMOV     r0,r1,d0
0000de  f7fffffe          BL       __aeabi_d2f
0000e2  900d              STR      r0,[sp,#0x34]
;;;291    
;;;292    								float Point4 = -(VolumeSliderValue*MicBuffer[i]*(eGFX_PHYSICAL_SCREEN_SIZE_Y/1.5));
0000e4  48c9              LDR      r0,|L2.1036|
0000e6  6801              LDR      r1,[r0,#0]  ; MicBuffer
0000e8  9810              LDR      r0,[sp,#0x40]
0000ea  eb010080          ADD      r0,r1,r0,LSL #2
0000ee  ed900a00          VLDR     s0,[r0,#0]
0000f2  48cb              LDR      r0,|L2.1056|
0000f4  edd00a00          VLDR     s1,[r0,#0]
0000f8  ee200a20          VMUL.F32 s0,s0,s1
0000fc  ed8d0a03          VSTR     s0,[sp,#0xc]
000100  9803              LDR      r0,[sp,#0xc]
000102  f7fffffe          BL       __aeabi_f2d
000106  e000              B        |L2.266|
                  |L2.264|
000108  e3fd              B        |L2.2310|
                  |L2.266|
00010a  ed9f0bca          VLDR     d0,|L2.1076|
00010e  ec532b10          VMOV     r2,r3,d0
000112  e9cd0104          STRD     r0,r1,[sp,#0x10]
000116  ed9d0b04          VLDR     d0,[sp,#0x10]
00011a  ec510b10          VMOV     r0,r1,d0
00011e  f7fffffe          BL       __aeabi_dmul
000122  e9cd0106          STRD     r0,r1,[sp,#0x18]
000126  ed9d0b06          VLDR     d0,[sp,#0x18]
00012a  ec510b10          VMOV     r0,r1,d0
00012e  f7fffffe          BL       __aeabi_dneg
000132  e9cd0108          STRD     r0,r1,[sp,#0x20]
000136  ed9d0b08          VLDR     d0,[sp,#0x20]
00013a  ec510b10          VMOV     r0,r1,d0
00013e  f7fffffe          BL       __aeabi_d2f
000142  900c              STR      r0,[sp,#0x30]
;;;293    								
;;;294    								float Point5 = -(VolumeSliderValue*MicBuffer[i-1]*(eGFX_PHYSICAL_SCREEN_SIZE_X/3));
000144  9810              LDR      r0,[sp,#0x40]
000146  1e40              SUBS     r0,r0,#1
000148  49b0              LDR      r1,|L2.1036|
00014a  6809              LDR      r1,[r1,#0]  ; MicBuffer
00014c  eb010080          ADD      r0,r1,r0,LSL #2
000150  ed900a00          VLDR     s0,[r0,#0]
000154  48b2              LDR      r0,|L2.1056|
000156  edd00a00          VLDR     s1,[r0,#0]
00015a  ee200a20          VMUL.F32 s0,s0,s1
00015e  eddf0ab7          VLDR     s1,|L2.1084|
000162  ee200a60          VNMUL.F32 s0,s0,s1
000166  ed8d0a0b          VSTR     s0,[sp,#0x2c]
;;;295    
;;;296    								float Point6 = (VolumeSliderValue*MicBuffer[i]*(eGFX_PHYSICAL_SCREEN_SIZE_Y/3));
00016a  48a8              LDR      r0,|L2.1036|
00016c  6801              LDR      r1,[r0,#0]  ; MicBuffer
00016e  9810              LDR      r0,[sp,#0x40]
000170  eb010080          ADD      r0,r1,r0,LSL #2
000174  edd00a00          VLDR     s1,[r0,#0]
000178  48a9              LDR      r0,|L2.1056|
00017a  ed900a00          VLDR     s0,[r0,#0]
00017e  ee200a80          VMUL.F32 s0,s1,s0
000182  eddf0aaf          VLDR     s1,|L2.1088|
000186  ee200a20          VMUL.F32 s0,s0,s1
00018a  ed8d0a0a          VSTR     s0,[sp,#0x28]
;;;297    					
;;;298    					if (i < (200/BassSliderValue) && i < (300*BassSliderValue))
00018e  48ad              LDR      r0,|L2.1092|
000190  ed900a00          VLDR     s0,[r0,#0]
000194  ed9f1aac          VLDR     s2,|L2.1096|
000198  eec10a00          VDIV.F32 s1,s2,s0
00019c  ed9d0a10          VLDR     s0,[sp,#0x40]
0001a0  eeb80ac0          VCVT.F32.S32 s0,s0
0001a4  eef40ac0          VCMPE.F32 s1,s0
0001a8  eef1fa10          VMRS     APSR_nzcv,FPSCR
                  |L2.428|
0001ac  dd7e              BLE      |L2.684|
0001ae  ed900a00          VLDR     s0,[r0,#0]
0001b2  eddf0aa6          VLDR     s1,|L2.1100|
0001b6  ee600a20          VMUL.F32 s1,s0,s1
0001ba  ed9d0a10          VLDR     s0,[sp,#0x40]
0001be  eeb80ac0          VCVT.F32.S32 s0,s0
0001c2  eef40ac0          VCMPE.F32 s1,s0
0001c6  eef1fa10          VMRS     APSR_nzcv,FPSCR
0001ca  ddef              BLE      |L2.428|
;;;299    								{eGFX_DrawCircle(&eGFX_BackBuffer,                       
0001cc  4991              LDR      r1,|L2.1044|
0001ce  9810              LDR      r0,[sp,#0x40]
0001d0  eb010080          ADD      r0,r1,r0,LSL #2
0001d4  ed900a00          VLDR     s0,[r0,#0]
0001d8  eef20a08          VMOV.F32 s1,#12.00000000
0001dc  ee801a20          VDIV.F32 s2,s0,s1
0001e0  4898              LDR      r0,|L2.1092|
0001e2  ed900a00          VLDR     s0,[r0,#0]
0001e6  ee210a00          VMUL.F32 s0,s2,s0
0001ea  ed8d0a01          VSTR     s0,[sp,#4]
0001ee  9801              LDR      r0,[sp,#4]
0001f0  f7fffffe          BL       __aeabi_f2d
0001f4  e9cd0104          STRD     r0,r1,[sp,#0x10]
0001f8  980e              LDR      r0,[sp,#0x38]
0001fa  f7fffffe          BL       __aeabi_f2d
0001fe  ed9f0b94          VLDR     d0,|L2.1104|
000202  ec532b10          VMOV     r2,r3,d0
000206  e9cd0100          STRD     r0,r1,[sp,#0]
00020a  ed9d0b00          VLDR     d0,[sp,#0]
00020e  ec510b10          VMOV     r0,r1,d0
000212  f7fffffe          BL       __aeabi_dadd
000216  e9cd0102          STRD     r0,r1,[sp,#8]
00021a  ed9d0b04          VLDR     d0,[sp,#0x10]
00021e  ec532b10          VMOV     r2,r3,d0
000222  ed9d0b02          VLDR     d0,[sp,#8]
000226  ec510b10          VMOV     r0,r1,d0
00022a  f7fffffe          BL       __aeabi_dsub
00022e  e9cd0106          STRD     r0,r1,[sp,#0x18]
000232  ed9d0b06          VLDR     d0,[sp,#0x18]
000236  ec510b10          VMOV     r0,r1,d0
00023a  f7fffffe          BL       __aeabi_d2iz
00023e  b200              SXTH     r0,r0
000240  9009              STR      r0,[sp,#0x24]
000242  980f              LDR      r0,[sp,#0x3c]
000244  f7fffffe          BL       __aeabi_f2d
000248  ed9f0b83          VLDR     d0,|L2.1112|
00024c  ec532b10          VMOV     r2,r3,d0
000250  e9cd0104          STRD     r0,r1,[sp,#0x10]
000254  ed9d0b04          VLDR     d0,[sp,#0x10]
000258  ec510b10          VMOV     r0,r1,d0
00025c  f7fffffe          BL       __aeabi_dadd
000260  e9cd0106          STRD     r0,r1,[sp,#0x18]
000264  ed9d0b06          VLDR     d0,[sp,#0x18]
000268  ec510b10          VMOV     r0,r1,d0
00026c  f7fffffe          BL       __aeabi_d2iz
000270  b200              SXTH     r0,r0
000272  9008              STR      r0,[sp,#0x20]
000274  f44f6080          MOV      r0,#0x400
000278  2303              MOVS     r3,#3
00027a  9000              STR      r0,[sp,#0]
00027c  4866              LDR      r0,|L2.1048|
00027e  e9dd1208          LDRD     r1,r2,[sp,#0x20]
000282  f7fffffe          BL       eGFX_DrawCircle
;;;300    												Point1+eGFX_PHYSICAL_SCREEN_SIZE_X/2.0,      
;;;301    												Point2+eGFX_PHYSICAL_SCREEN_SIZE_Y/2.0 - FFT_PowerSpectrum[i]/12*BassSliderValue,
;;;302    												3,																					
;;;303    												eGFX_RGB888_TO_RGB565(0,128,0)  												
;;;304    												);	
;;;305    								eGFX_DrawCircle(&eGFX_BackBuffer,                       
000286  4963              LDR      r1,|L2.1044|
000288  9810              LDR      r0,[sp,#0x40]
00028a  eb010080          ADD      r0,r1,r0,LSL #2
00028e  ed900a00          VLDR     s0,[r0,#0]
000292  eef20a08          VMOV.F32 s1,#12.00000000
000296  ee801a20          VDIV.F32 s2,s0,s1
00029a  486a              LDR      r0,|L2.1092|
00029c  ed900a00          VLDR     s0,[r0,#0]
0002a0  ee210a00          VMUL.F32 s0,s2,s0
0002a4  ed8d0a01          VSTR     s0,[sp,#4]
0002a8  9801              LDR      r0,[sp,#4]
0002aa  e000              B        |L2.686|
                  |L2.684|
0002ac  e2be              B        |L2.2092|
                  |L2.686|
0002ae  f7fffffe          BL       __aeabi_f2d
0002b2  e9cd0104          STRD     r0,r1,[sp,#0x10]
0002b6  980e              LDR      r0,[sp,#0x38]
0002b8  f7fffffe          BL       __aeabi_f2d
0002bc  ed9f0b68          VLDR     d0,|L2.1120|
0002c0  ec532b10          VMOV     r2,r3,d0
0002c4  e9cd0100          STRD     r0,r1,[sp,#0]
0002c8  ed9d0b00          VLDR     d0,[sp,#0]
0002cc  ec510b10          VMOV     r0,r1,d0
0002d0  f7fffffe          BL       __aeabi_dadd
0002d4  e9cd0102          STRD     r0,r1,[sp,#8]
0002d8  ed9d0b04          VLDR     d0,[sp,#0x10]
0002dc  ec532b10          VMOV     r2,r3,d0
0002e0  ed9d0b02          VLDR     d0,[sp,#8]
0002e4  ec510b10          VMOV     r0,r1,d0
0002e8  f7fffffe          BL       __aeabi_dsub
0002ec  e9cd0106          STRD     r0,r1,[sp,#0x18]
0002f0  ed9d0b06          VLDR     d0,[sp,#0x18]
0002f4  ec510b10          VMOV     r0,r1,d0
0002f8  f7fffffe          BL       __aeabi_d2iz
0002fc  b200              SXTH     r0,r0
0002fe  9009              STR      r0,[sp,#0x24]
000300  980f              LDR      r0,[sp,#0x3c]
000302  f7fffffe          BL       __aeabi_f2d
000306  ed9f0b58          VLDR     d0,|L2.1128|
00030a  ec532b10          VMOV     r2,r3,d0
00030e  e9cd0104          STRD     r0,r1,[sp,#0x10]
000312  ed9d0b04          VLDR     d0,[sp,#0x10]
000316  ec510b10          VMOV     r0,r1,d0
00031a  f7fffffe          BL       __aeabi_dadd
00031e  e9cd0106          STRD     r0,r1,[sp,#0x18]
000322  ed9d0b06          VLDR     d0,[sp,#0x18]
000326  ec510b10          VMOV     r0,r1,d0
00032a  f7fffffe          BL       __aeabi_d2iz
00032e  b200              SXTH     r0,r0
000330  9008              STR      r0,[sp,#0x20]
000332  f44f6080          MOV      r0,#0x400
000336  2303              MOVS     r3,#3
000338  9000              STR      r0,[sp,#0]
00033a  4837              LDR      r0,|L2.1048|
00033c  e9dd1208          LDRD     r1,r2,[sp,#0x20]
000340  f7fffffe          BL       eGFX_DrawCircle
;;;306    												Point1+eGFX_PHYSICAL_SCREEN_SIZE_X/4.3,      
;;;307    												Point2+eGFX_PHYSICAL_SCREEN_SIZE_Y/4.3 - FFT_PowerSpectrum[i]/12*BassSliderValue,
;;;308    												3,																					
;;;309    												eGFX_RGB888_TO_RGB565(0,128,0)  												
;;;310    												);			
;;;311    								eGFX_DrawCircle(&eGFX_BackBuffer,                       
000344  4933              LDR      r1,|L2.1044|
000346  9810              LDR      r0,[sp,#0x40]
000348  eb010080          ADD      r0,r1,r0,LSL #2
00034c  ed900a00          VLDR     s0,[r0,#0]
000350  eef20a08          VMOV.F32 s1,#12.00000000
000354  ee801a20          VDIV.F32 s2,s0,s1
000358  483a              LDR      r0,|L2.1092|
00035a  ed900a00          VLDR     s0,[r0,#0]
00035e  ee210a00          VMUL.F32 s0,s2,s0
000362  ed8d0a01          VSTR     s0,[sp,#4]
000366  9801              LDR      r0,[sp,#4]
000368  f7fffffe          BL       __aeabi_f2d
00036c  e9cd0104          STRD     r0,r1,[sp,#0x10]
000370  980e              LDR      r0,[sp,#0x38]
000372  f7fffffe          BL       __aeabi_f2d
000376  ed9f0b3e          VLDR     d0,|L2.1136|
00037a  ec532b10          VMOV     r2,r3,d0
00037e  e9cd0100          STRD     r0,r1,[sp,#0]
000382  ed9d0b00          VLDR     d0,[sp,#0]
000386  ec510b10          VMOV     r0,r1,d0
00038a  f7fffffe          BL       __aeabi_dadd
00038e  e9cd0102          STRD     r0,r1,[sp,#8]
000392  ed9d0b04          VLDR     d0,[sp,#0x10]
000396  ec532b10          VMOV     r2,r3,d0
00039a  ed9d0b02          VLDR     d0,[sp,#8]
00039e  ec510b10          VMOV     r0,r1,d0
0003a2  f7fffffe          BL       __aeabi_dsub
0003a6  e9cd0106          STRD     r0,r1,[sp,#0x18]
0003aa  ed9d0b06          VLDR     d0,[sp,#0x18]
0003ae  ec510b10          VMOV     r0,r1,d0
0003b2  f7fffffe          BL       __aeabi_d2iz
0003b6  b200              SXTH     r0,r0
0003b8  9009              STR      r0,[sp,#0x24]
0003ba  980f              LDR      r0,[sp,#0x3c]
0003bc  f7fffffe          BL       __aeabi_f2d
0003c0  ed9f0b2d          VLDR     d0,|L2.1144|
0003c4  ec532b10          VMOV     r2,r3,d0
0003c8  e9cd0104          STRD     r0,r1,[sp,#0x10]
0003cc  ed9d0b04          VLDR     d0,[sp,#0x10]
0003d0  ec510b10          VMOV     r0,r1,d0
0003d4  f7fffffe          BL       __aeabi_dadd
0003d8  e9cd0106          STRD     r0,r1,[sp,#0x18]
0003dc  ed9d0b06          VLDR     d0,[sp,#0x18]
0003e0  ec510b10          VMOV     r0,r1,d0
0003e4  f7fffffe          BL       __aeabi_d2iz
0003e8  b200              SXTH     r0,r0
0003ea  9008              STR      r0,[sp,#0x20]
0003ec  f44f6080          MOV      r0,#0x400
0003f0  2303              MOVS     r3,#3
0003f2  9000              STR      r0,[sp,#0]
0003f4  4808              LDR      r0,|L2.1048|
0003f6  e9dd1208          LDRD     r1,r2,[sp,#0x20]
0003fa  f7fffffe          BL       eGFX_DrawCircle
;;;312    												Point1+eGFX_PHYSICAL_SCREEN_SIZE_X/1.2,      
;;;313    												Point2+eGFX_PHYSICAL_SCREEN_SIZE_Y/1.2 - FFT_PowerSpectrum[i]/12*BassSliderValue,
;;;314    												3,																					
;;;315    												eGFX_RGB888_TO_RGB565(0,128,0)  												
;;;316    												);			
;;;317    								eGFX_DrawCircle(&eGFX_BackBuffer,
0003fe  e03f              B        |L2.1152|
                  |L2.1024|
                          DCD      NextBufferReady
                  |L2.1028|
                          DCD      0x4008e200
                  |L2.1032|
                          DCD      FFT_RawDataOut
                  |L2.1036|
                          DCD      MicBuffer
                  |L2.1040|
                          DCD      MyFFT
                  |L2.1044|
                          DCD      FFT_PowerSpectrum
                  |L2.1048|
                          DCD      eGFX_BackBuffer
                  |L2.1052|
                          DCD      Sprite_16BPP_565_equalizer
                  |L2.1056|
                          DCD      VolumeSliderValue
                  |L2.1060|
000424  43700000          DCFS     0x43700000 ; 240
                  |L2.1064|
000428  43080000          DCFS     0x43080000 ; 136
                  |L2.1068|
00042c  00000000          DCFD     0x4074000000000000 ; 320
000430  40740000
                  |L2.1076|
000434  aaaaaaab          DCFD     0x4066aaaaaaaaaaab ; 181.33333333333334
000438  4066aaaa
                  |L2.1084|
00043c  43200000          DCFS     0x43200000 ; 160
                  |L2.1088|
000440  42b40000          DCFS     0x42b40000 ; 90
                  |L2.1092|
                          DCD      BassSliderValue
                  |L2.1096|
000448  43480000          DCFS     0x43480000 ; 200
                  |L2.1100|
00044c  43960000          DCFS     0x43960000 ; 300
                  |L2.1104|
000450  00000000          DCFD     0x4061000000000000 ; 136
000454  40610000
                  |L2.1112|
000458  00000000          DCFD     0x406e000000000000 ; 240
00045c  406e0000
                  |L2.1120|
000460  82fa0be9          DCFD     0x404fa0be82fa0be9 ; 63.255813953488378
000464  404fa0be
                  |L2.1128|
000468  a0be82fa          DCFD     0x405be82fa0be82fa ; 111.62790697674419
00046c  405be82f
                  |L2.1136|
000470  55555556          DCFD     0x406c555555555556 ; 226.66666666666669
000474  406c5555
                  |L2.1144|
000478  00000000          DCFD     0x4079000000000000 ; 400
00047c  40790000
                  |L2.1152|
000480  49fe              LDR      r1,|L2.2172|
000482  9810              LDR      r0,[sp,#0x40]
000484  eb010080          ADD      r0,r1,r0,LSL #2
000488  ed900a00          VLDR     s0,[r0,#0]
00048c  eef20a08          VMOV.F32 s1,#12.00000000
000490  ee801a20          VDIV.F32 s2,s0,s1
000494  48fa              LDR      r0,|L2.2176|
000496  ed900a00          VLDR     s0,[r0,#0]
00049a  ee210a00          VMUL.F32 s0,s2,s0
00049e  ed8d0a01          VSTR     s0,[sp,#4]
0004a2  9801              LDR      r0,[sp,#4]
0004a4  f7fffffe          BL       __aeabi_f2d
0004a8  e9cd0104          STRD     r0,r1,[sp,#0x10]
0004ac  980c              LDR      r0,[sp,#0x30]
0004ae  f7fffffe          BL       __aeabi_f2d
0004b2  ed1f0b20          VLDR     d0,|L2.1076|
0004b6  ec532b10          VMOV     r2,r3,d0
0004ba  e9cd0100          STRD     r0,r1,[sp,#0]
0004be  ed9d0b00          VLDR     d0,[sp,#0]
0004c2  ec510b10          VMOV     r0,r1,d0
0004c6  f7fffffe          BL       __aeabi_dadd
0004ca  e9cd0102          STRD     r0,r1,[sp,#8]
0004ce  ed9d0b04          VLDR     d0,[sp,#0x10]
0004d2  ec532b10          VMOV     r2,r3,d0
0004d6  ed9d0b02          VLDR     d0,[sp,#8]
0004da  ec510b10          VMOV     r0,r1,d0
0004de  f7fffffe          BL       __aeabi_dsub
0004e2  e9cd0106          STRD     r0,r1,[sp,#0x18]
0004e6  ed9d0b06          VLDR     d0,[sp,#0x18]
0004ea  ec510b10          VMOV     r0,r1,d0
0004ee  f7fffffe          BL       __aeabi_d2iz
0004f2  b200              SXTH     r0,r0
0004f4  9009              STR      r0,[sp,#0x24]
0004f6  980d              LDR      r0,[sp,#0x34]
0004f8  f7fffffe          BL       __aeabi_f2d
0004fc  ed1f0b35          VLDR     d0,|L2.1068|
000500  ec532b10          VMOV     r2,r3,d0
000504  e9cd0104          STRD     r0,r1,[sp,#0x10]
000508  ed9d0b04          VLDR     d0,[sp,#0x10]
00050c  ec510b10          VMOV     r0,r1,d0
000510  f7fffffe          BL       __aeabi_dadd
000514  e9cd0106          STRD     r0,r1,[sp,#0x18]
000518  ed9d0b06          VLDR     d0,[sp,#0x18]
00051c  ec510b10          VMOV     r0,r1,d0
000520  f7fffffe          BL       __aeabi_d2iz
000524  b200              SXTH     r0,r0
000526  9008              STR      r0,[sp,#0x20]
000528  f44f6080          MOV      r0,#0x400
00052c  2303              MOVS     r3,#3
00052e  9000              STR      r0,[sp,#0]
000530  48d4              LDR      r0,|L2.2180|
000532  e9dd1208          LDRD     r1,r2,[sp,#0x20]
000536  f7fffffe          BL       eGFX_DrawCircle
;;;318    												Point3+eGFX_PHYSICAL_SCREEN_SIZE_X/1.5,
;;;319    												Point4+eGFX_PHYSICAL_SCREEN_SIZE_Y/1.5 - FFT_PowerSpectrum[i]/12*BassSliderValue,
;;;320    												3,
;;;321    												eGFX_RGB888_TO_RGB565(0,128,0)
;;;322    												);
;;;323    								eGFX_DrawCircle(&eGFX_BackBuffer,
00053a  49d0              LDR      r1,|L2.2172|
00053c  9810              LDR      r0,[sp,#0x40]
00053e  eb010080          ADD      r0,r1,r0,LSL #2
000542  ed900a00          VLDR     s0,[r0,#0]
000546  eeb21a08          VMOV.F32 s2,#12.00000000
00054a  eec00a01          VDIV.F32 s1,s0,s2
00054e  ed9d0a0c          VLDR     s0,[sp,#0x30]
000552  ed1f1a45          VLDR     s2,|L2.1088|
000556  ee300a01          VADD.F32 s0,s0,s2
00055a  48c9              LDR      r0,|L2.2176|
00055c  ed901a00          VLDR     s2,[r0,#0]
000560  ee000ac1          VMLS.F32 s0,s1,s2
000564  eebd0ac0          VCVT.S32.F32 s0,s0
000568  ee100a10          VMOV     r0,s0
00056c  b200              SXTH     r0,r0
00056e  9009              STR      r0,[sp,#0x24]
000570  f44f6080          MOV      r0,#0x400
000574  9000              STR      r0,[sp,#0]
000576  ed9d0a0d          VLDR     s0,[sp,#0x34]
00057a  ed5f0a50          VLDR     s1,|L2.1084|
00057e  ee300a20          VADD.F32 s0,s0,s1
000582  eebd0ac0          VCVT.S32.F32 s0,s0
000586  ee100a10          VMOV     r0,s0
00058a  b200              SXTH     r0,r0
00058c  2303              MOVS     r3,#3
00058e  9008              STR      r0,[sp,#0x20]
000590  4601              MOV      r1,r0
000592  48bc              LDR      r0,|L2.2180|
000594  9a09              LDR      r2,[sp,#0x24]
000596  f7fffffe          BL       eGFX_DrawCircle
;;;324    												Point3+eGFX_PHYSICAL_SCREEN_SIZE_X/3,
;;;325    												Point4+eGFX_PHYSICAL_SCREEN_SIZE_Y/3 - FFT_PowerSpectrum[i]/12*BassSliderValue,
;;;326    												3,
;;;327    												eGFX_RGB888_TO_RGB565(0,128,0)
;;;328    												);
;;;329    								eGFX_DrawCircle(&eGFX_BackBuffer,
00059a  49b8              LDR      r1,|L2.2172|
00059c  9810              LDR      r0,[sp,#0x40]
00059e  eb010080          ADD      r0,r1,r0,LSL #2
0005a2  ed900a00          VLDR     s0,[r0,#0]
0005a6  eef20a08          VMOV.F32 s1,#12.00000000
0005aa  ee801a20          VDIV.F32 s2,s0,s1
0005ae  48b4              LDR      r0,|L2.2176|
0005b0  ed900a00          VLDR     s0,[r0,#0]
0005b4  ee210a00          VMUL.F32 s0,s2,s0
0005b8  ed8d0a01          VSTR     s0,[sp,#4]
0005bc  9801              LDR      r0,[sp,#4]
0005be  f7fffffe          BL       __aeabi_f2d
0005c2  e9cd0104          STRD     r0,r1,[sp,#0x10]
0005c6  980a              LDR      r0,[sp,#0x28]
0005c8  f7fffffe          BL       __aeabi_f2d
0005cc  ed1f0b67          VLDR     d0,|L2.1076|
0005d0  ec532b10          VMOV     r2,r3,d0
0005d4  e9cd0100          STRD     r0,r1,[sp,#0]
0005d8  ed9d0b00          VLDR     d0,[sp,#0]
0005dc  ec510b10          VMOV     r0,r1,d0
0005e0  f7fffffe          BL       __aeabi_dadd
0005e4  e9cd0102          STRD     r0,r1,[sp,#8]
0005e8  ed9d0b04          VLDR     d0,[sp,#0x10]
0005ec  ec532b10          VMOV     r2,r3,d0
0005f0  ed9d0b02          VLDR     d0,[sp,#8]
0005f4  ec510b10          VMOV     r0,r1,d0
0005f8  f7fffffe          BL       __aeabi_dsub
0005fc  e9cd0106          STRD     r0,r1,[sp,#0x18]
000600  ed9d0b06          VLDR     d0,[sp,#0x18]
000604  ec510b10          VMOV     r0,r1,d0
000608  f7fffffe          BL       __aeabi_d2iz
00060c  b200              SXTH     r0,r0
00060e  9009              STR      r0,[sp,#0x24]
000610  f44f6080          MOV      r0,#0x400
000614  9000              STR      r0,[sp,#0]
000616  ed9d0a0b          VLDR     s0,[sp,#0x2c]
00061a  ed5f0a78          VLDR     s1,|L2.1084|
00061e  ee300a20          VADD.F32 s0,s0,s1
000622  eebd0ac0          VCVT.S32.F32 s0,s0
000626  ee100a10          VMOV     r0,s0
00062a  b200              SXTH     r0,r0
00062c  2303              MOVS     r3,#3
00062e  9008              STR      r0,[sp,#0x20]
000630  4601              MOV      r1,r0
000632  4894              LDR      r0,|L2.2180|
000634  9a09              LDR      r2,[sp,#0x24]
000636  f7fffffe          BL       eGFX_DrawCircle
;;;330    												Point5+eGFX_PHYSICAL_SCREEN_SIZE_X/3,
;;;331    												Point6+eGFX_PHYSICAL_SCREEN_SIZE_Y/1.5 - FFT_PowerSpectrum[i]/12*BassSliderValue,
;;;332    												3,
;;;333    												eGFX_RGB888_TO_RGB565(0,128,0)
;;;334    												);
;;;335    								eGFX_DrawCircle(&eGFX_BackBuffer,
00063a  4990              LDR      r1,|L2.2172|
00063c  9810              LDR      r0,[sp,#0x40]
00063e  eb010080          ADD      r0,r1,r0,LSL #2
000642  ed900a00          VLDR     s0,[r0,#0]
000646  eeb21a08          VMOV.F32 s2,#12.00000000
00064a  eec00a01          VDIV.F32 s1,s0,s2
00064e  ed9d0a0a          VLDR     s0,[sp,#0x28]
000652  ed1f1a85          VLDR     s2,|L2.1088|
000656  ee300a01          VADD.F32 s0,s0,s2
00065a  4889              LDR      r0,|L2.2176|
00065c  ed901a00          VLDR     s2,[r0,#0]
000660  ee000ac1          VMLS.F32 s0,s1,s2
000664  eebd0ac0          VCVT.S32.F32 s0,s0
000668  ee100a10          VMOV     r0,s0
00066c  b200              SXTH     r0,r0
00066e  9009              STR      r0,[sp,#0x24]
000670  980b              LDR      r0,[sp,#0x2c]
000672  f7fffffe          BL       __aeabi_f2d
000676  ed1f0b93          VLDR     d0,|L2.1068|
00067a  ec532b10          VMOV     r2,r3,d0
00067e  e9cd0104          STRD     r0,r1,[sp,#0x10]
000682  ed9d0b04          VLDR     d0,[sp,#0x10]
000686  ec510b10          VMOV     r0,r1,d0
00068a  f7fffffe          BL       __aeabi_dadd
00068e  e9cd0106          STRD     r0,r1,[sp,#0x18]
000692  ed9d0b06          VLDR     d0,[sp,#0x18]
000696  ec510b10          VMOV     r0,r1,d0
00069a  f7fffffe          BL       __aeabi_d2iz
00069e  b200              SXTH     r0,r0
0006a0  9008              STR      r0,[sp,#0x20]
0006a2  f44f6080          MOV      r0,#0x400
0006a6  2303              MOVS     r3,#3
0006a8  9000              STR      r0,[sp,#0]
0006aa  4876              LDR      r0,|L2.2180|
0006ac  e9dd1208          LDRD     r1,r2,[sp,#0x20]
0006b0  f7fffffe          BL       eGFX_DrawCircle
;;;336    												Point5+eGFX_PHYSICAL_SCREEN_SIZE_X/1.5,
;;;337    												Point6+eGFX_PHYSICAL_SCREEN_SIZE_Y/3 - FFT_PowerSpectrum[i]/12*BassSliderValue,
;;;338    												3,
;;;339    												eGFX_RGB888_TO_RGB565(0,128,0)
;;;340    												);
;;;341    							eGFX_DrawCircle(&eGFX_BackBuffer,
0006b4  4971              LDR      r1,|L2.2172|
0006b6  9810              LDR      r0,[sp,#0x40]
0006b8  eb010080          ADD      r0,r1,r0,LSL #2
0006bc  ed900a00          VLDR     s0,[r0,#0]
0006c0  eef20a08          VMOV.F32 s1,#12.00000000
0006c4  ee801a20          VDIV.F32 s2,s0,s1
0006c8  486d              LDR      r0,|L2.2176|
0006ca  ed900a00          VLDR     s0,[r0,#0]
0006ce  ee210a00          VMUL.F32 s0,s2,s0
0006d2  ed8d0a01          VSTR     s0,[sp,#4]
0006d6  9801              LDR      r0,[sp,#4]
0006d8  f7fffffe          BL       __aeabi_f2d
0006dc  e9cd0104          STRD     r0,r1,[sp,#0x10]
0006e0  980e              LDR      r0,[sp,#0x38]
0006e2  f7fffffe          BL       __aeabi_f2d
0006e6  ed1f0b9e          VLDR     d0,|L2.1136|
0006ea  ec532b10          VMOV     r2,r3,d0
0006ee  e9cd0100          STRD     r0,r1,[sp,#0]
0006f2  ed9d0b00          VLDR     d0,[sp,#0]
0006f6  ec510b10          VMOV     r0,r1,d0
0006fa  f7fffffe          BL       __aeabi_dadd
0006fe  e9cd0102          STRD     r0,r1,[sp,#8]
000702  ed9d0b04          VLDR     d0,[sp,#0x10]
000706  ec532b10          VMOV     r2,r3,d0
00070a  ed9d0b02          VLDR     d0,[sp,#8]
00070e  ec510b10          VMOV     r0,r1,d0
000712  f7fffffe          BL       __aeabi_dsub
000716  e9cd0106          STRD     r0,r1,[sp,#0x18]
00071a  ed9d0b06          VLDR     d0,[sp,#0x18]
00071e  ec510b10          VMOV     r0,r1,d0
000722  f7fffffe          BL       __aeabi_d2iz
000726  b200              SXTH     r0,r0
000728  9009              STR      r0,[sp,#0x24]
00072a  980f              LDR      r0,[sp,#0x3c]
00072c  f7fffffe          BL       __aeabi_f2d
000730  ed1f0bb3          VLDR     d0,|L2.1128|
000734  ec532b10          VMOV     r2,r3,d0
000738  e9cd0104          STRD     r0,r1,[sp,#0x10]
00073c  ed9d0b04          VLDR     d0,[sp,#0x10]
000740  ec510b10          VMOV     r0,r1,d0
000744  f7fffffe          BL       __aeabi_dadd
000748  e9cd0106          STRD     r0,r1,[sp,#0x18]
00074c  ed9d0b06          VLDR     d0,[sp,#0x18]
000750  ec510b10          VMOV     r0,r1,d0
000754  f7fffffe          BL       __aeabi_d2iz
000758  b200              SXTH     r0,r0
00075a  9008              STR      r0,[sp,#0x20]
00075c  f44f6080          MOV      r0,#0x400
000760  2303              MOVS     r3,#3
000762  9000              STR      r0,[sp,#0]
000764  4847              LDR      r0,|L2.2180|
000766  e9dd1208          LDRD     r1,r2,[sp,#0x20]
00076a  f7fffffe          BL       eGFX_DrawCircle
;;;342    												Point1+eGFX_PHYSICAL_SCREEN_SIZE_X/4.3,
;;;343    												Point2+eGFX_PHYSICAL_SCREEN_SIZE_Y/1.2 - FFT_PowerSpectrum[i]/12*BassSliderValue,
;;;344    												3,
;;;345    												eGFX_RGB888_TO_RGB565(0,128,0)
;;;346    												);
;;;347    								eGFX_DrawCircle(&eGFX_BackBuffer,
00076e  4943              LDR      r1,|L2.2172|
000770  9810              LDR      r0,[sp,#0x40]
000772  eb010080          ADD      r0,r1,r0,LSL #2
000776  edd00a00          VLDR     s1,[r0,#0]
00077a  eeb21a08          VMOV.F32 s2,#12.00000000
00077e  ee800a81          VDIV.F32 s0,s1,s2
000782  483f              LDR      r0,|L2.2176|
000784  edd00a00          VLDR     s1,[r0,#0]
000788  ee200a20          VMUL.F32 s0,s0,s1
00078c  ed8d0a01          VSTR     s0,[sp,#4]
000790  9801              LDR      r0,[sp,#4]
000792  f7fffffe          BL       __aeabi_f2d
000796  e9cd0104          STRD     r0,r1,[sp,#0x10]
00079a  980e              LDR      r0,[sp,#0x38]
00079c  f7fffffe          BL       __aeabi_f2d
0007a0  ed1f0bd1          VLDR     d0,|L2.1120|
0007a4  ec532b10          VMOV     r2,r3,d0
0007a8  e9cd0100          STRD     r0,r1,[sp,#0]
0007ac  ed9d0b00          VLDR     d0,[sp,#0]
0007b0  ec510b10          VMOV     r0,r1,d0
0007b4  f7fffffe          BL       __aeabi_dadd
0007b8  e9cd0102          STRD     r0,r1,[sp,#8]
0007bc  ed9d0b04          VLDR     d0,[sp,#0x10]
0007c0  ec532b10          VMOV     r2,r3,d0
0007c4  ed9d0b02          VLDR     d0,[sp,#8]
0007c8  ec510b10          VMOV     r0,r1,d0
0007cc  f7fffffe          BL       __aeabi_dsub
0007d0  e9cd0106          STRD     r0,r1,[sp,#0x18]
0007d4  ed9d0b06          VLDR     d0,[sp,#0x18]
0007d8  ec510b10          VMOV     r0,r1,d0
0007dc  f7fffffe          BL       __aeabi_d2iz
0007e0  b200              SXTH     r0,r0
0007e2  9009              STR      r0,[sp,#0x24]
0007e4  980f              LDR      r0,[sp,#0x3c]
0007e6  f7fffffe          BL       __aeabi_f2d
0007ea  ed1f0bdd          VLDR     d0,|L2.1144|
0007ee  ec532b10          VMOV     r2,r3,d0
0007f2  e9cd0104          STRD     r0,r1,[sp,#0x10]
0007f6  ed9d0b04          VLDR     d0,[sp,#0x10]
0007fa  ec510b10          VMOV     r0,r1,d0
0007fe  f7fffffe          BL       __aeabi_dadd
000802  e9cd0106          STRD     r0,r1,[sp,#0x18]
000806  ed9d0b06          VLDR     d0,[sp,#0x18]
00080a  ec510b10          VMOV     r0,r1,d0
00080e  f7fffffe          BL       __aeabi_d2iz
000812  b200              SXTH     r0,r0
000814  9008              STR      r0,[sp,#0x20]
000816  f44f6080          MOV      r0,#0x400
00081a  2303              MOVS     r3,#3
00081c  9000              STR      r0,[sp,#0]
00081e  4819              LDR      r0,|L2.2180|
000820  e9dd1208          LDRD     r1,r2,[sp,#0x20]
000824  f7fffffe          BL       eGFX_DrawCircle
000828  e33d              B        |L2.3750|
                  |L2.2090|
00082a  e3fd              B        |L2.4136|
                  |L2.2092|
;;;348    												Point1+eGFX_PHYSICAL_SCREEN_SIZE_X/1.2,
;;;349    												Point2+eGFX_PHYSICAL_SCREEN_SIZE_Y/4.3 - FFT_PowerSpectrum[i]/12*BassSliderValue,
;;;350    												3,
;;;351    												eGFX_RGB888_TO_RGB565(0,128,0)
;;;352    												);}
;;;353    				else if (i >= (200/MidSliderValue) && i < (400/MidSliderValue))
00082c  4816              LDR      r0,|L2.2184|
00082e  ed900a00          VLDR     s0,[r0,#0]
000832  ed1f1afb          VLDR     s2,|L2.1096|
000836  eec10a00          VDIV.F32 s1,s2,s0
00083a  ed9d0a10          VLDR     s0,[sp,#0x40]
00083e  eeb80ac0          VCVT.F32.S32 s0,s0
000842  eef40ac0          VCMPE.F32 s1,s0
000846  eef1fa10          VMRS     APSR_nzcv,FPSCR
00084a  d87c              BHI      |L2.2374|
00084c  ed900a00          VLDR     s0,[r0,#0]
000850  ed9f1a0e          VLDR     s2,|L2.2188|
000854  eec10a00          VDIV.F32 s1,s2,s0
000858  ed9d0a10          VLDR     s0,[sp,#0x40]
00085c  eeb80ac0          VCVT.F32.S32 s0,s0
000860  eef40ac0          VCMPE.F32 s1,s0
000864  eef1fa10          VMRS     APSR_nzcv,FPSCR
000868  dd6d              BLE      |L2.2374|
;;;354    								{eGFX_DrawCircle(&eGFX_BackBuffer,                       
00086a  4904              LDR      r1,|L2.2172|
00086c  9810              LDR      r0,[sp,#0x40]
00086e  eb010080          ADD      r0,r1,r0,LSL #2
000872  edd00a00          VLDR     s1,[r0,#0]
000876  eeb21a08          VMOV.F32 s2,#12.00000000
00087a  e009              B        |L2.2192|
                  |L2.2172|
                          DCD      FFT_PowerSpectrum
                  |L2.2176|
                          DCD      BassSliderValue
                  |L2.2180|
                          DCD      eGFX_BackBuffer
                  |L2.2184|
                          DCD      MidSliderValue
                  |L2.2188|
00088c  43c80000          DCFS     0x43c80000 ; 400
                  |L2.2192|
000890  ee800a81          VDIV.F32 s0,s1,s2
000894  48fe              LDR      r0,|L2.3216|
000896  edd00a00          VLDR     s1,[r0,#0]
00089a  ee200a20          VMUL.F32 s0,s0,s1
00089e  ed8d0a01          VSTR     s0,[sp,#4]
0008a2  9801              LDR      r0,[sp,#4]
0008a4  f7fffffe          BL       __aeabi_f2d
0008a8  e9cd0104          STRD     r0,r1,[sp,#0x10]
0008ac  980e              LDR      r0,[sp,#0x38]
0008ae  f7fffffe          BL       __aeabi_f2d
0008b2  ed9f0bf8          VLDR     d0,|L2.3220|
0008b6  ec532b10          VMOV     r2,r3,d0
0008ba  e9cd0100          STRD     r0,r1,[sp,#0]
0008be  ed9d0b00          VLDR     d0,[sp,#0]
0008c2  ec510b10          VMOV     r0,r1,d0
0008c6  f7fffffe          BL       __aeabi_dadd
0008ca  e9cd0102          STRD     r0,r1,[sp,#8]
0008ce  ed9d0b04          VLDR     d0,[sp,#0x10]
0008d2  ec532b10          VMOV     r2,r3,d0
0008d6  ed9d0b02          VLDR     d0,[sp,#8]
0008da  ec510b10          VMOV     r0,r1,d0
0008de  f7fffffe          BL       __aeabi_dsub
0008e2  e9cd0106          STRD     r0,r1,[sp,#0x18]
0008e6  ed9d0b06          VLDR     d0,[sp,#0x18]
0008ea  ec510b10          VMOV     r0,r1,d0
0008ee  f7fffffe          BL       __aeabi_d2iz
0008f2  b200              SXTH     r0,r0
0008f4  9009              STR      r0,[sp,#0x24]
0008f6  980f              LDR      r0,[sp,#0x3c]
0008f8  f7fffffe          BL       __aeabi_f2d
0008fc  ed9f0be7          VLDR     d0,|L2.3228|
000900  ec532b10          VMOV     r2,r3,d0
000904  e000              B        |L2.2312|
                  |L2.2310|
000906  e3fd              B        |L2.4356|
                  |L2.2312|
000908  e9cd0104          STRD     r0,r1,[sp,#0x10]
00090c  ed9d0b04          VLDR     d0,[sp,#0x10]
000910  ec510b10          VMOV     r0,r1,d0
000914  f7fffffe          BL       __aeabi_dadd
000918  e9cd0106          STRD     r0,r1,[sp,#0x18]
00091c  ed9d0b06          VLDR     d0,[sp,#0x18]
000920  ec510b10          VMOV     r0,r1,d0
000924  f7fffffe          BL       __aeabi_d2iz
000928  b200              SXTH     r0,r0
00092a  9008              STR      r0,[sp,#0x20]
00092c  48dd              LDR      r0,|L2.3236|
00092e  2303              MOVS     r3,#3
000930  9000              STR      r0,[sp,#0]
000932  48dd              LDR      r0,|L2.3240|
000934  e9dd1208          LDRD     r1,r2,[sp,#0x20]
000938  f7fffffe          BL       eGFX_DrawCircle
;;;355    												Point1+eGFX_PHYSICAL_SCREEN_SIZE_X/2.0,      
;;;356    												Point2+eGFX_PHYSICAL_SCREEN_SIZE_Y/2.0 - FFT_PowerSpectrum[i]/12*MidSliderValue,
;;;357    												3,																					
;;;358    												eGFX_RGB888_TO_RGB565(255,255,0)  												
;;;359    												);	
;;;360    								eGFX_DrawCircle(&eGFX_BackBuffer,                       
00093c  49db              LDR      r1,|L2.3244|
00093e  9810              LDR      r0,[sp,#0x40]
000940  eb010080          ADD      r0,r1,r0,LSL #2
000944  e000              B        |L2.2376|
                  |L2.2374|
000946  e2af              B        |L2.3752|
                  |L2.2376|
000948  ed900a00          VLDR     s0,[r0,#0]
00094c  eef20a08          VMOV.F32 s1,#12.00000000
000950  ee801a20          VDIV.F32 s2,s0,s1
000954  48ce              LDR      r0,|L2.3216|
000956  ed900a00          VLDR     s0,[r0,#0]
00095a  ee210a00          VMUL.F32 s0,s2,s0
00095e  ed8d0a01          VSTR     s0,[sp,#4]
000962  9801              LDR      r0,[sp,#4]
000964  f7fffffe          BL       __aeabi_f2d
000968  e9cd0104          STRD     r0,r1,[sp,#0x10]
00096c  980e              LDR      r0,[sp,#0x38]
00096e  f7fffffe          BL       __aeabi_f2d
000972  ed9f0bcf          VLDR     d0,|L2.3248|
000976  ec532b10          VMOV     r2,r3,d0
00097a  e9cd0100          STRD     r0,r1,[sp,#0]
00097e  ed9d0b00          VLDR     d0,[sp,#0]
000982  ec510b10          VMOV     r0,r1,d0
000986  f7fffffe          BL       __aeabi_dadd
00098a  e9cd0102          STRD     r0,r1,[sp,#8]
00098e  ed9d0b04          VLDR     d0,[sp,#0x10]
000992  ec532b10          VMOV     r2,r3,d0
000996  ed9d0b02          VLDR     d0,[sp,#8]
00099a  ec510b10          VMOV     r0,r1,d0
00099e  f7fffffe          BL       __aeabi_dsub
0009a2  e9cd0106          STRD     r0,r1,[sp,#0x18]
0009a6  ed9d0b06          VLDR     d0,[sp,#0x18]
0009aa  ec510b10          VMOV     r0,r1,d0
0009ae  f7fffffe          BL       __aeabi_d2iz
0009b2  b200              SXTH     r0,r0
0009b4  9009              STR      r0,[sp,#0x24]
0009b6  980f              LDR      r0,[sp,#0x3c]
0009b8  f7fffffe          BL       __aeabi_f2d
0009bc  ed9f0bbe          VLDR     d0,|L2.3256|
0009c0  ec532b10          VMOV     r2,r3,d0
0009c4  e9cd0104          STRD     r0,r1,[sp,#0x10]
0009c8  ed9d0b04          VLDR     d0,[sp,#0x10]
0009cc  ec510b10          VMOV     r0,r1,d0
0009d0  f7fffffe          BL       __aeabi_dadd
0009d4  e9cd0106          STRD     r0,r1,[sp,#0x18]
0009d8  ed9d0b06          VLDR     d0,[sp,#0x18]
0009dc  ec510b10          VMOV     r0,r1,d0
0009e0  f7fffffe          BL       __aeabi_d2iz
0009e4  b200              SXTH     r0,r0
0009e6  9008              STR      r0,[sp,#0x20]
0009e8  48ae              LDR      r0,|L2.3236|
0009ea  2303              MOVS     r3,#3
0009ec  9000              STR      r0,[sp,#0]
0009ee  48ae              LDR      r0,|L2.3240|
0009f0  e9dd1208          LDRD     r1,r2,[sp,#0x20]
0009f4  f7fffffe          BL       eGFX_DrawCircle
;;;361    												Point1+eGFX_PHYSICAL_SCREEN_SIZE_X/4.3,      
;;;362    												Point2+eGFX_PHYSICAL_SCREEN_SIZE_Y/4.3 - FFT_PowerSpectrum[i]/12*MidSliderValue,
;;;363    												3,																					
;;;364    												eGFX_RGB888_TO_RGB565(255,255,0)  												
;;;365    												);			
;;;366    								eGFX_DrawCircle(&eGFX_BackBuffer,                       
0009f8  49ac              LDR      r1,|L2.3244|
0009fa  9810              LDR      r0,[sp,#0x40]
0009fc  eb010080          ADD      r0,r1,r0,LSL #2
000a00  edd00a00          VLDR     s1,[r0,#0]
000a04  eeb21a08          VMOV.F32 s2,#12.00000000
000a08  ee800a81          VDIV.F32 s0,s1,s2
000a0c  48a0              LDR      r0,|L2.3216|
000a0e  edd00a00          VLDR     s1,[r0,#0]
000a12  ee200a20          VMUL.F32 s0,s0,s1
000a16  ed8d0a01          VSTR     s0,[sp,#4]
000a1a  9801              LDR      r0,[sp,#4]
000a1c  f7fffffe          BL       __aeabi_f2d
000a20  e9cd0104          STRD     r0,r1,[sp,#0x10]
000a24  980e              LDR      r0,[sp,#0x38]
000a26  f7fffffe          BL       __aeabi_f2d
000a2a  ed9f0ba5          VLDR     d0,|L2.3264|
000a2e  ec532b10          VMOV     r2,r3,d0
000a32  e9cd0100          STRD     r0,r1,[sp,#0]
000a36  ed9d0b00          VLDR     d0,[sp,#0]
000a3a  ec510b10          VMOV     r0,r1,d0
000a3e  f7fffffe          BL       __aeabi_dadd
000a42  e9cd0102          STRD     r0,r1,[sp,#8]
000a46  ed9d0b04          VLDR     d0,[sp,#0x10]
000a4a  ec532b10          VMOV     r2,r3,d0
000a4e  ed9d0b02          VLDR     d0,[sp,#8]
000a52  ec510b10          VMOV     r0,r1,d0
000a56  f7fffffe          BL       __aeabi_dsub
000a5a  e9cd0106          STRD     r0,r1,[sp,#0x18]
000a5e  ed9d0b06          VLDR     d0,[sp,#0x18]
000a62  ec510b10          VMOV     r0,r1,d0
000a66  f7fffffe          BL       __aeabi_d2iz
000a6a  b200              SXTH     r0,r0
000a6c  9009              STR      r0,[sp,#0x24]
000a6e  980f              LDR      r0,[sp,#0x3c]
000a70  f7fffffe          BL       __aeabi_f2d
000a74  ed9f0b94          VLDR     d0,|L2.3272|
000a78  ec532b10          VMOV     r2,r3,d0
000a7c  e9cd0104          STRD     r0,r1,[sp,#0x10]
000a80  ed9d0b04          VLDR     d0,[sp,#0x10]
000a84  ec510b10          VMOV     r0,r1,d0
000a88  f7fffffe          BL       __aeabi_dadd
000a8c  e9cd0106          STRD     r0,r1,[sp,#0x18]
000a90  ed9d0b06          VLDR     d0,[sp,#0x18]
000a94  ec510b10          VMOV     r0,r1,d0
000a98  f7fffffe          BL       __aeabi_d2iz
000a9c  b200              SXTH     r0,r0
000a9e  9008              STR      r0,[sp,#0x20]
000aa0  4880              LDR      r0,|L2.3236|
000aa2  2303              MOVS     r3,#3
000aa4  9000              STR      r0,[sp,#0]
000aa6  4880              LDR      r0,|L2.3240|
000aa8  e9dd1208          LDRD     r1,r2,[sp,#0x20]
000aac  f7fffffe          BL       eGFX_DrawCircle
;;;367    												Point1+eGFX_PHYSICAL_SCREEN_SIZE_X/1.2,      
;;;368    												Point2+eGFX_PHYSICAL_SCREEN_SIZE_Y/1.2 - FFT_PowerSpectrum[i]/12*MidSliderValue,
;;;369    												3,																					
;;;370    												eGFX_RGB888_TO_RGB565(255,255,0)  												
;;;371    												);			
;;;372    								eGFX_DrawCircle(&eGFX_BackBuffer,
000ab0  497e              LDR      r1,|L2.3244|
000ab2  9810              LDR      r0,[sp,#0x40]
000ab4  eb010080          ADD      r0,r1,r0,LSL #2
000ab8  edd00a00          VLDR     s1,[r0,#0]
000abc  eeb21a08          VMOV.F32 s2,#12.00000000
000ac0  ee800a81          VDIV.F32 s0,s1,s2
000ac4  4872              LDR      r0,|L2.3216|
000ac6  edd00a00          VLDR     s1,[r0,#0]
000aca  ee200a20          VMUL.F32 s0,s0,s1
000ace  ed8d0a01          VSTR     s0,[sp,#4]
000ad2  9801              LDR      r0,[sp,#4]
000ad4  f7fffffe          BL       __aeabi_f2d
000ad8  e9cd0104          STRD     r0,r1,[sp,#0x10]
000adc  980c              LDR      r0,[sp,#0x30]
000ade  f7fffffe          BL       __aeabi_f2d
000ae2  ed9f0b7b          VLDR     d0,|L2.3280|
000ae6  ec532b10          VMOV     r2,r3,d0
000aea  e9cd0100          STRD     r0,r1,[sp,#0]
000aee  ed9d0b00          VLDR     d0,[sp,#0]
000af2  ec510b10          VMOV     r0,r1,d0
000af6  f7fffffe          BL       __aeabi_dadd
000afa  e9cd0102          STRD     r0,r1,[sp,#8]
000afe  ed9d0b04          VLDR     d0,[sp,#0x10]
000b02  ec532b10          VMOV     r2,r3,d0
000b06  ed9d0b02          VLDR     d0,[sp,#8]
000b0a  ec510b10          VMOV     r0,r1,d0
000b0e  f7fffffe          BL       __aeabi_dsub
000b12  e9cd0106          STRD     r0,r1,[sp,#0x18]
000b16  ed9d0b06          VLDR     d0,[sp,#0x18]
000b1a  ec510b10          VMOV     r0,r1,d0
000b1e  f7fffffe          BL       __aeabi_d2iz
000b22  b200              SXTH     r0,r0
000b24  9009              STR      r0,[sp,#0x24]
000b26  980d              LDR      r0,[sp,#0x34]
000b28  f7fffffe          BL       __aeabi_f2d
000b2c  ed9f0b6a          VLDR     d0,|L2.3288|
000b30  ec532b10          VMOV     r2,r3,d0
000b34  e9cd0104          STRD     r0,r1,[sp,#0x10]
000b38  ed9d0b04          VLDR     d0,[sp,#0x10]
000b3c  ec510b10          VMOV     r0,r1,d0
000b40  f7fffffe          BL       __aeabi_dadd
000b44  e9cd0106          STRD     r0,r1,[sp,#0x18]
000b48  ed9d0b06          VLDR     d0,[sp,#0x18]
000b4c  ec510b10          VMOV     r0,r1,d0
000b50  f7fffffe          BL       __aeabi_d2iz
000b54  b200              SXTH     r0,r0
000b56  9008              STR      r0,[sp,#0x20]
000b58  4852              LDR      r0,|L2.3236|
000b5a  2303              MOVS     r3,#3
000b5c  9000              STR      r0,[sp,#0]
000b5e  4852              LDR      r0,|L2.3240|
000b60  e9dd1208          LDRD     r1,r2,[sp,#0x20]
000b64  f7fffffe          BL       eGFX_DrawCircle
;;;373    												Point3+eGFX_PHYSICAL_SCREEN_SIZE_X/1.5,
;;;374    												Point4+eGFX_PHYSICAL_SCREEN_SIZE_Y/1.5 - FFT_PowerSpectrum[i]/12*MidSliderValue,
;;;375    												3,
;;;376    												eGFX_RGB888_TO_RGB565(255,255,0)
;;;377    												);
;;;378    								eGFX_DrawCircle(&eGFX_BackBuffer,
000b68  4950              LDR      r1,|L2.3244|
000b6a  9810              LDR      r0,[sp,#0x40]
000b6c  eb010080          ADD      r0,r1,r0,LSL #2
000b70  ed900a00          VLDR     s0,[r0,#0]
000b74  eeb21a08          VMOV.F32 s2,#12.00000000
000b78  eec00a01          VDIV.F32 s1,s0,s2
000b7c  ed9d0a0c          VLDR     s0,[sp,#0x30]
000b80  ed9f1a57          VLDR     s2,|L2.3296|
000b84  ee300a01          VADD.F32 s0,s0,s2
000b88  4841              LDR      r0,|L2.3216|
000b8a  ed901a00          VLDR     s2,[r0,#0]
000b8e  ee000ac1          VMLS.F32 s0,s1,s2
000b92  eebd0ac0          VCVT.S32.F32 s0,s0
000b96  ee100a10          VMOV     r0,s0
000b9a  b200              SXTH     r0,r0
000b9c  9009              STR      r0,[sp,#0x24]
000b9e  4841              LDR      r0,|L2.3236|
000ba0  9000              STR      r0,[sp,#0]
000ba2  ed9d0a0d          VLDR     s0,[sp,#0x34]
000ba6  eddf0a4f          VLDR     s1,|L2.3300|
000baa  ee300a20          VADD.F32 s0,s0,s1
000bae  eebd0ac0          VCVT.S32.F32 s0,s0
000bb2  ee100a10          VMOV     r0,s0
000bb6  b200              SXTH     r0,r0
000bb8  2303              MOVS     r3,#3
000bba  9008              STR      r0,[sp,#0x20]
000bbc  4601              MOV      r1,r0
000bbe  483a              LDR      r0,|L2.3240|
000bc0  9a09              LDR      r2,[sp,#0x24]
000bc2  f7fffffe          BL       eGFX_DrawCircle
;;;379    												Point3+eGFX_PHYSICAL_SCREEN_SIZE_X/3,
;;;380    												Point4+eGFX_PHYSICAL_SCREEN_SIZE_Y/3 - FFT_PowerSpectrum[i]/12*MidSliderValue,
;;;381    												3,
;;;382    												eGFX_RGB888_TO_RGB565(255,255,0)
;;;383    												);
;;;384    								eGFX_DrawCircle(&eGFX_BackBuffer,
000bc6  4939              LDR      r1,|L2.3244|
000bc8  9810              LDR      r0,[sp,#0x40]
000bca  eb010080          ADD      r0,r1,r0,LSL #2
000bce  edd00a00          VLDR     s1,[r0,#0]
000bd2  eeb21a08          VMOV.F32 s2,#12.00000000
000bd6  ee800a81          VDIV.F32 s0,s1,s2
000bda  482d              LDR      r0,|L2.3216|
000bdc  edd00a00          VLDR     s1,[r0,#0]
000be0  ee200a20          VMUL.F32 s0,s0,s1
000be4  ed8d0a01          VSTR     s0,[sp,#4]
000be8  9801              LDR      r0,[sp,#4]
000bea  f7fffffe          BL       __aeabi_f2d
000bee  e9cd0104          STRD     r0,r1,[sp,#0x10]
000bf2  980a              LDR      r0,[sp,#0x28]
000bf4  f7fffffe          BL       __aeabi_f2d
000bf8  ed9f0b35          VLDR     d0,|L2.3280|
000bfc  ec532b10          VMOV     r2,r3,d0
000c00  e9cd0100          STRD     r0,r1,[sp,#0]
000c04  ed9d0b00          VLDR     d0,[sp,#0]
000c08  ec510b10          VMOV     r0,r1,d0
000c0c  f7fffffe          BL       __aeabi_dadd
000c10  e9cd0102          STRD     r0,r1,[sp,#8]
000c14  ed9d0b04          VLDR     d0,[sp,#0x10]
000c18  ec532b10          VMOV     r2,r3,d0
000c1c  ed9d0b02          VLDR     d0,[sp,#8]
000c20  ec510b10          VMOV     r0,r1,d0
000c24  f7fffffe          BL       __aeabi_dsub
000c28  e9cd0106          STRD     r0,r1,[sp,#0x18]
000c2c  ed9d0b06          VLDR     d0,[sp,#0x18]
000c30  ec510b10          VMOV     r0,r1,d0
000c34  f7fffffe          BL       __aeabi_d2iz
000c38  b200              SXTH     r0,r0
000c3a  9009              STR      r0,[sp,#0x24]
000c3c  4819              LDR      r0,|L2.3236|
000c3e  9000              STR      r0,[sp,#0]
000c40  ed9d0a0b          VLDR     s0,[sp,#0x2c]
000c44  eddf0a27          VLDR     s1,|L2.3300|
000c48  ee300a20          VADD.F32 s0,s0,s1
000c4c  eebd0ac0          VCVT.S32.F32 s0,s0
000c50  ee100a10          VMOV     r0,s0
000c54  b200              SXTH     r0,r0
000c56  2303              MOVS     r3,#3
000c58  9008              STR      r0,[sp,#0x20]
000c5a  4601              MOV      r1,r0
000c5c  4812              LDR      r0,|L2.3240|
000c5e  9a09              LDR      r2,[sp,#0x24]
000c60  f7fffffe          BL       eGFX_DrawCircle
;;;385    												Point5+eGFX_PHYSICAL_SCREEN_SIZE_X/3,
;;;386    												Point6+eGFX_PHYSICAL_SCREEN_SIZE_Y/1.5 - FFT_PowerSpectrum[i]/12*MidSliderValue,
;;;387    												3,
;;;388    												eGFX_RGB888_TO_RGB565(255,255,0)
;;;389    												);
;;;390    								eGFX_DrawCircle(&eGFX_BackBuffer,
000c64  4911              LDR      r1,|L2.3244|
000c66  9810              LDR      r0,[sp,#0x40]
000c68  eb010080          ADD      r0,r1,r0,LSL #2
000c6c  ed900a00          VLDR     s0,[r0,#0]
000c70  eeb21a08          VMOV.F32 s2,#12.00000000
000c74  eec00a01          VDIV.F32 s1,s0,s2
000c78  ed9d0a0a          VLDR     s0,[sp,#0x28]
000c7c  ed9f1a18          VLDR     s2,|L2.3296|
000c80  ee300a01          VADD.F32 s0,s0,s2
000c84  4802              LDR      r0,|L2.3216|
000c86  ed901a00          VLDR     s2,[r0,#0]
000c8a  ee000ac1          VMLS.F32 s0,s1,s2
000c8e  e02b              B        |L2.3304|
                  |L2.3216|
                          DCD      MidSliderValue
                  |L2.3220|
000c94  00000000          DCFD     0x4061000000000000 ; 136
000c98  40610000
                  |L2.3228|
000c9c  00000000          DCFD     0x406e000000000000 ; 240
000ca0  406e0000
                  |L2.3236|
                          DCD      0x0001ffe0
                  |L2.3240|
                          DCD      eGFX_BackBuffer
                  |L2.3244|
                          DCD      FFT_PowerSpectrum
                  |L2.3248|
000cb0  82fa0be9          DCFD     0x404fa0be82fa0be9 ; 63.255813953488378
000cb4  404fa0be
                  |L2.3256|
000cb8  a0be82fa          DCFD     0x405be82fa0be82fa ; 111.62790697674419
000cbc  405be82f
                  |L2.3264|
000cc0  55555556          DCFD     0x406c555555555556 ; 226.66666666666669
000cc4  406c5555
                  |L2.3272|
000cc8  00000000          DCFD     0x4079000000000000 ; 400
000ccc  40790000
                  |L2.3280|
000cd0  aaaaaaab          DCFD     0x4066aaaaaaaaaaab ; 181.33333333333334
000cd4  4066aaaa
                  |L2.3288|
000cd8  00000000          DCFD     0x4074000000000000 ; 320
000cdc  40740000
                  |L2.3296|
000ce0  42b40000          DCFS     0x42b40000 ; 90
                  |L2.3300|
000ce4  43200000          DCFS     0x43200000 ; 160
                  |L2.3304|
000ce8  eebd0ac0          VCVT.S32.F32 s0,s0
000cec  ee100a10          VMOV     r0,s0
000cf0  b200              SXTH     r0,r0
000cf2  9009              STR      r0,[sp,#0x24]
000cf4  980b              LDR      r0,[sp,#0x2c]
000cf6  f7fffffe          BL       __aeabi_f2d
000cfa  ed1f0b09          VLDR     d0,|L2.3288|
000cfe  ec532b10          VMOV     r2,r3,d0
000d02  e9cd0104          STRD     r0,r1,[sp,#0x10]
000d06  ed9d0b04          VLDR     d0,[sp,#0x10]
000d0a  ec510b10          VMOV     r0,r1,d0
000d0e  f7fffffe          BL       __aeabi_dadd
000d12  e9cd0106          STRD     r0,r1,[sp,#0x18]
000d16  ed9d0b06          VLDR     d0,[sp,#0x18]
000d1a  ec510b10          VMOV     r0,r1,d0
000d1e  f7fffffe          BL       __aeabi_d2iz
000d22  b200              SXTH     r0,r0
000d24  9008              STR      r0,[sp,#0x20]
000d26  48fe              LDR      r0,|L2.4384|
000d28  2303              MOVS     r3,#3
000d2a  9000              STR      r0,[sp,#0]
000d2c  48fd              LDR      r0,|L2.4388|
000d2e  e9dd1208          LDRD     r1,r2,[sp,#0x20]
000d32  f7fffffe          BL       eGFX_DrawCircle
;;;391    												Point5+eGFX_PHYSICAL_SCREEN_SIZE_X/1.5,
;;;392    												Point6+eGFX_PHYSICAL_SCREEN_SIZE_Y/3 - FFT_PowerSpectrum[i]/12*MidSliderValue,
;;;393    												3,
;;;394    												eGFX_RGB888_TO_RGB565(255,255,0)
;;;395    												);
;;;396    							eGFX_DrawCircle(&eGFX_BackBuffer,
000d36  49fc              LDR      r1,|L2.4392|
000d38  9810              LDR      r0,[sp,#0x40]
000d3a  eb010080          ADD      r0,r1,r0,LSL #2
000d3e  edd00a00          VLDR     s1,[r0,#0]
000d42  eeb21a08          VMOV.F32 s2,#12.00000000
000d46  ee800a81          VDIV.F32 s0,s1,s2
000d4a  48f8              LDR      r0,|L2.4396|
000d4c  edd00a00          VLDR     s1,[r0,#0]
000d50  ee200a20          VMUL.F32 s0,s0,s1
000d54  ed8d0a01          VSTR     s0,[sp,#4]
000d58  9801              LDR      r0,[sp,#4]
000d5a  f7fffffe          BL       __aeabi_f2d
000d5e  e9cd0104          STRD     r0,r1,[sp,#0x10]
000d62  980e              LDR      r0,[sp,#0x38]
000d64  f7fffffe          BL       __aeabi_f2d
000d68  ed1f0b2b          VLDR     d0,|L2.3264|
000d6c  ec532b10          VMOV     r2,r3,d0
000d70  e9cd0100          STRD     r0,r1,[sp,#0]
000d74  ed9d0b00          VLDR     d0,[sp,#0]
000d78  ec510b10          VMOV     r0,r1,d0
000d7c  f7fffffe          BL       __aeabi_dadd
000d80  e9cd0102          STRD     r0,r1,[sp,#8]
000d84  ed9d0b04          VLDR     d0,[sp,#0x10]
000d88  ec532b10          VMOV     r2,r3,d0
000d8c  ed9d0b02          VLDR     d0,[sp,#8]
000d90  ec510b10          VMOV     r0,r1,d0
000d94  f7fffffe          BL       __aeabi_dsub
000d98  e9cd0106          STRD     r0,r1,[sp,#0x18]
000d9c  ed9d0b06          VLDR     d0,[sp,#0x18]
000da0  ec510b10          VMOV     r0,r1,d0
000da4  f7fffffe          BL       __aeabi_d2iz
000da8  b200              SXTH     r0,r0
000daa  9009              STR      r0,[sp,#0x24]
000dac  980f              LDR      r0,[sp,#0x3c]
000dae  f7fffffe          BL       __aeabi_f2d
000db2  ed1f0b3f          VLDR     d0,|L2.3256|
000db6  ec532b10          VMOV     r2,r3,d0
000dba  e9cd0104          STRD     r0,r1,[sp,#0x10]
000dbe  ed9d0b04          VLDR     d0,[sp,#0x10]
000dc2  ec510b10          VMOV     r0,r1,d0
000dc6  f7fffffe          BL       __aeabi_dadd
000dca  e9cd0106          STRD     r0,r1,[sp,#0x18]
000dce  ed9d0b06          VLDR     d0,[sp,#0x18]
000dd2  ec510b10          VMOV     r0,r1,d0
000dd6  f7fffffe          BL       __aeabi_d2iz
000dda  b200              SXTH     r0,r0
000ddc  9008              STR      r0,[sp,#0x20]
000dde  48d0              LDR      r0,|L2.4384|
000de0  2303              MOVS     r3,#3
000de2  9000              STR      r0,[sp,#0]
000de4  48cf              LDR      r0,|L2.4388|
000de6  e9dd1208          LDRD     r1,r2,[sp,#0x20]
000dea  f7fffffe          BL       eGFX_DrawCircle
;;;397    												Point1+eGFX_PHYSICAL_SCREEN_SIZE_X/4.3,
;;;398    												Point2+eGFX_PHYSICAL_SCREEN_SIZE_Y/1.2 - FFT_PowerSpectrum[i]/12*MidSliderValue,
;;;399    												3,
;;;400    												eGFX_RGB888_TO_RGB565(255,255,0)
;;;401    												);
;;;402    								eGFX_DrawCircle(&eGFX_BackBuffer,
000dee  49ce              LDR      r1,|L2.4392|
000df0  9810              LDR      r0,[sp,#0x40]
000df2  eb010080          ADD      r0,r1,r0,LSL #2
000df6  edd00a00          VLDR     s1,[r0,#0]
000dfa  eeb21a08          VMOV.F32 s2,#12.00000000
000dfe  ee800a81          VDIV.F32 s0,s1,s2
000e02  48ca              LDR      r0,|L2.4396|
000e04  edd00a00          VLDR     s1,[r0,#0]
000e08  ee200a20          VMUL.F32 s0,s0,s1
000e0c  ed8d0a01          VSTR     s0,[sp,#4]
000e10  9801              LDR      r0,[sp,#4]
000e12  f7fffffe          BL       __aeabi_f2d
000e16  e9cd0104          STRD     r0,r1,[sp,#0x10]
000e1a  980e              LDR      r0,[sp,#0x38]
000e1c  f7fffffe          BL       __aeabi_f2d
000e20  ed1f0b5d          VLDR     d0,|L2.3248|
000e24  ec532b10          VMOV     r2,r3,d0
000e28  e9cd0100          STRD     r0,r1,[sp,#0]
000e2c  ed9d0b00          VLDR     d0,[sp,#0]
000e30  ec510b10          VMOV     r0,r1,d0
000e34  f7fffffe          BL       __aeabi_dadd
000e38  e9cd0102          STRD     r0,r1,[sp,#8]
000e3c  ed9d0b04          VLDR     d0,[sp,#0x10]
000e40  ec532b10          VMOV     r2,r3,d0
000e44  ed9d0b02          VLDR     d0,[sp,#8]
000e48  ec510b10          VMOV     r0,r1,d0
000e4c  f7fffffe          BL       __aeabi_dsub
000e50  e9cd0106          STRD     r0,r1,[sp,#0x18]
000e54  ed9d0b06          VLDR     d0,[sp,#0x18]
000e58  ec510b10          VMOV     r0,r1,d0
000e5c  f7fffffe          BL       __aeabi_d2iz
000e60  b200              SXTH     r0,r0
000e62  9009              STR      r0,[sp,#0x24]
000e64  980f              LDR      r0,[sp,#0x3c]
000e66  f7fffffe          BL       __aeabi_f2d
000e6a  ed1f0b69          VLDR     d0,|L2.3272|
000e6e  ec532b10          VMOV     r2,r3,d0
000e72  e9cd0104          STRD     r0,r1,[sp,#0x10]
000e76  ed9d0b04          VLDR     d0,[sp,#0x10]
000e7a  ec510b10          VMOV     r0,r1,d0
000e7e  f7fffffe          BL       __aeabi_dadd
000e82  e9cd0106          STRD     r0,r1,[sp,#0x18]
000e86  ed9d0b06          VLDR     d0,[sp,#0x18]
000e8a  ec510b10          VMOV     r0,r1,d0
000e8e  f7fffffe          BL       __aeabi_d2iz
000e92  b200              SXTH     r0,r0
000e94  9008              STR      r0,[sp,#0x20]
000e96  48a2              LDR      r0,|L2.4384|
000e98  2303              MOVS     r3,#3
000e9a  9000              STR      r0,[sp,#0]
000e9c  48a1              LDR      r0,|L2.4388|
000e9e  e9dd1208          LDRD     r1,r2,[sp,#0x20]
000ea2  f7fffffe          BL       eGFX_DrawCircle
                  |L2.3750|
000ea6  e310              B        |L2.5322|
                  |L2.3752|
;;;403    												Point1+eGFX_PHYSICAL_SCREEN_SIZE_X/1.2,
;;;404    												Point2+eGFX_PHYSICAL_SCREEN_SIZE_Y/4.3 - FFT_PowerSpectrum[i]/12*MidSliderValue,
;;;405    												3,
;;;406    												eGFX_RGB888_TO_RGB565(255,255,0)
;;;407    												);}
;;;408    							else if(i >= (400/TrebleSliderValue))
000ea8  48a1              LDR      r0,|L2.4400|
000eaa  ed900a00          VLDR     s0,[r0,#0]
000eae  ed9f1aa1          VLDR     s2,|L2.4404|
000eb2  eec10a00          VDIV.F32 s1,s2,s0
000eb6  ed9d0a10          VLDR     s0,[sp,#0x40]
000eba  eeb80ac0          VCVT.F32.S32 s0,s0
000ebe  eef40ac0          VCMPE.F32 s1,s0
000ec2  eef1fa10          VMRS     APSR_nzcv,FPSCR
000ec6  d8ee              BHI      |L2.3750|
;;;409    								{eGFX_DrawCircle(&eGFX_BackBuffer,                       
000ec8  4997              LDR      r1,|L2.4392|
000eca  9810              LDR      r0,[sp,#0x40]
000ecc  eb010080          ADD      r0,r1,r0,LSL #2
000ed0  ed900a00          VLDR     s0,[r0,#0]
000ed4  eeb21a08          VMOV.F32 s2,#12.00000000
000ed8  eec00a01          VDIV.F32 s1,s0,s2
000edc  4894              LDR      r0,|L2.4400|
000ede  ed900a00          VLDR     s0,[r0,#0]
000ee2  ee200a80          VMUL.F32 s0,s1,s0
000ee6  ed8d0a01          VSTR     s0,[sp,#4]
000eea  9801              LDR      r0,[sp,#4]
000eec  f7fffffe          BL       __aeabi_f2d
000ef0  e9cd0104          STRD     r0,r1,[sp,#0x10]
000ef4  980e              LDR      r0,[sp,#0x38]
000ef6  f7fffffe          BL       __aeabi_f2d
000efa  ed1f0b9a          VLDR     d0,|L2.3220|
000efe  ec532b10          VMOV     r2,r3,d0
000f02  e9cd0100          STRD     r0,r1,[sp,#0]
000f06  ed9d0b00          VLDR     d0,[sp,#0]
000f0a  ec510b10          VMOV     r0,r1,d0
000f0e  f7fffffe          BL       __aeabi_dadd
000f12  e9cd0102          STRD     r0,r1,[sp,#8]
000f16  ed9d0b04          VLDR     d0,[sp,#0x10]
000f1a  ec532b10          VMOV     r2,r3,d0
000f1e  ed9d0b02          VLDR     d0,[sp,#8]
000f22  ec510b10          VMOV     r0,r1,d0
000f26  f7fffffe          BL       __aeabi_dsub
000f2a  e9cd0106          STRD     r0,r1,[sp,#0x18]
000f2e  ed9d0b06          VLDR     d0,[sp,#0x18]
000f32  ec510b10          VMOV     r0,r1,d0
000f36  f7fffffe          BL       __aeabi_d2iz
000f3a  b200              SXTH     r0,r0
000f3c  9009              STR      r0,[sp,#0x24]
000f3e  980f              LDR      r0,[sp,#0x3c]
000f40  f7fffffe          BL       __aeabi_f2d
000f44  ed1f0bab          VLDR     d0,|L2.3228|
000f48  ec532b10          VMOV     r2,r3,d0
000f4c  e9cd0104          STRD     r0,r1,[sp,#0x10]
000f50  ed9d0b04          VLDR     d0,[sp,#0x10]
000f54  ec510b10          VMOV     r0,r1,d0
000f58  f7fffffe          BL       __aeabi_dadd
000f5c  e9cd0106          STRD     r0,r1,[sp,#0x18]
000f60  ed9d0b06          VLDR     d0,[sp,#0x18]
000f64  ec510b10          VMOV     r0,r1,d0
000f68  f7fffffe          BL       __aeabi_d2iz
000f6c  b200              SXTH     r0,r0
000f6e  9008              STR      r0,[sp,#0x20]
000f70  f44f30fc          MOV      r0,#0x1f800
000f74  2303              MOVS     r3,#3
000f76  9000              STR      r0,[sp,#0]
000f78  486a              LDR      r0,|L2.4388|
000f7a  e9dd1208          LDRD     r1,r2,[sp,#0x20]
000f7e  f7fffffe          BL       eGFX_DrawCircle
;;;410    												Point1+eGFX_PHYSICAL_SCREEN_SIZE_X/2.0,      
;;;411    												Point2+eGFX_PHYSICAL_SCREEN_SIZE_Y/2.0 - FFT_PowerSpectrum[i]/12*TrebleSliderValue,
;;;412    												3,																					
;;;413    												eGFX_RGB888_TO_RGB565(255,0,0)  												
;;;414    												);	
;;;415    								eGFX_DrawCircle(&eGFX_BackBuffer,                       
000f82  4969              LDR      r1,|L2.4392|
000f84  9810              LDR      r0,[sp,#0x40]
000f86  eb010080          ADD      r0,r1,r0,LSL #2
000f8a  edd00a00          VLDR     s1,[r0,#0]
000f8e  eeb21a08          VMOV.F32 s2,#12.00000000
000f92  ee800a81          VDIV.F32 s0,s1,s2
000f96  4866              LDR      r0,|L2.4400|
000f98  edd00a00          VLDR     s1,[r0,#0]
000f9c  ee200a20          VMUL.F32 s0,s0,s1
000fa0  ed8d0a01          VSTR     s0,[sp,#4]
000fa4  9801              LDR      r0,[sp,#4]
000fa6  f7fffffe          BL       __aeabi_f2d
000faa  e9cd0104          STRD     r0,r1,[sp,#0x10]
000fae  980e              LDR      r0,[sp,#0x38]
000fb0  f7fffffe          BL       __aeabi_f2d
000fb4  ed1f0bc2          VLDR     d0,|L2.3248|
000fb8  ec532b10          VMOV     r2,r3,d0
000fbc  e9cd0100          STRD     r0,r1,[sp,#0]
000fc0  ed9d0b00          VLDR     d0,[sp,#0]
000fc4  ec510b10          VMOV     r0,r1,d0
000fc8  f7fffffe          BL       __aeabi_dadd
000fcc  e9cd0102          STRD     r0,r1,[sp,#8]
000fd0  ed9d0b04          VLDR     d0,[sp,#0x10]
000fd4  ec532b10          VMOV     r2,r3,d0
000fd8  ed9d0b02          VLDR     d0,[sp,#8]
000fdc  ec510b10          VMOV     r0,r1,d0
000fe0  f7fffffe          BL       __aeabi_dsub
000fe4  e9cd0106          STRD     r0,r1,[sp,#0x18]
000fe8  ed9d0b06          VLDR     d0,[sp,#0x18]
000fec  ec510b10          VMOV     r0,r1,d0
000ff0  f7fffffe          BL       __aeabi_d2iz
000ff4  b200              SXTH     r0,r0
000ff6  9009              STR      r0,[sp,#0x24]
000ff8  980f              LDR      r0,[sp,#0x3c]
000ffa  f7fffffe          BL       __aeabi_f2d
000ffe  ed1f0bd2          VLDR     d0,|L2.3256|
001002  ec532b10          VMOV     r2,r3,d0
001006  e9cd0104          STRD     r0,r1,[sp,#0x10]
00100a  ed9d0b04          VLDR     d0,[sp,#0x10]
00100e  ec510b10          VMOV     r0,r1,d0
001012  f7fffffe          BL       __aeabi_dadd
001016  e9cd0106          STRD     r0,r1,[sp,#0x18]
00101a  ed9d0b06          VLDR     d0,[sp,#0x18]
00101e  ec510b10          VMOV     r0,r1,d0
001022  f7fffffe          BL       __aeabi_d2iz
001026  e000              B        |L2.4138|
                  |L2.4136|
001028  e252              B        |L2.5328|
                  |L2.4138|
00102a  b200              SXTH     r0,r0
00102c  9008              STR      r0,[sp,#0x20]
00102e  f44f30fc          MOV      r0,#0x1f800
001032  2303              MOVS     r3,#3
001034  9000              STR      r0,[sp,#0]
001036  483b              LDR      r0,|L2.4388|
001038  e9dd1208          LDRD     r1,r2,[sp,#0x20]
00103c  f7fffffe          BL       eGFX_DrawCircle
;;;416    												Point1+eGFX_PHYSICAL_SCREEN_SIZE_X/4.3,      
;;;417    												Point2+eGFX_PHYSICAL_SCREEN_SIZE_Y/4.3 - FFT_PowerSpectrum[i]/12*TrebleSliderValue,
;;;418    												3,																					
;;;419    												eGFX_RGB888_TO_RGB565(255,0,0)  												
;;;420    												);			
;;;421    								eGFX_DrawCircle(&eGFX_BackBuffer,                       
001040  4939              LDR      r1,|L2.4392|
001042  9810              LDR      r0,[sp,#0x40]
001044  eb010080          ADD      r0,r1,r0,LSL #2
001048  ed900a00          VLDR     s0,[r0,#0]
00104c  eeb21a08          VMOV.F32 s2,#12.00000000
001050  eec00a01          VDIV.F32 s1,s0,s2
001054  4836              LDR      r0,|L2.4400|
001056  ed900a00          VLDR     s0,[r0,#0]
00105a  ee200a80          VMUL.F32 s0,s1,s0
00105e  ed8d0a01          VSTR     s0,[sp,#4]
001062  9801              LDR      r0,[sp,#4]
001064  f7fffffe          BL       __aeabi_f2d
001068  e9cd0104          STRD     r0,r1,[sp,#0x10]
00106c  980e              LDR      r0,[sp,#0x38]
00106e  f7fffffe          BL       __aeabi_f2d
001072  ed1f0bed          VLDR     d0,|L2.3264|
001076  ec532b10          VMOV     r2,r3,d0
00107a  e9cd0100          STRD     r0,r1,[sp,#0]
00107e  ed9d0b00          VLDR     d0,[sp,#0]
001082  ec510b10          VMOV     r0,r1,d0
001086  f7fffffe          BL       __aeabi_dadd
00108a  e9cd0102          STRD     r0,r1,[sp,#8]
00108e  ed9d0b04          VLDR     d0,[sp,#0x10]
001092  ec532b10          VMOV     r2,r3,d0
001096  ed9d0b02          VLDR     d0,[sp,#8]
00109a  ec510b10          VMOV     r0,r1,d0
00109e  f7fffffe          BL       __aeabi_dsub
0010a2  e9cd0106          STRD     r0,r1,[sp,#0x18]
0010a6  ed9d0b06          VLDR     d0,[sp,#0x18]
0010aa  ec510b10          VMOV     r0,r1,d0
0010ae  f7fffffe          BL       __aeabi_d2iz
0010b2  b200              SXTH     r0,r0
0010b4  9009              STR      r0,[sp,#0x24]
0010b6  980f              LDR      r0,[sp,#0x3c]
0010b8  f7fffffe          BL       __aeabi_f2d
0010bc  ed9f0b1e          VLDR     d0,|L2.4408|
0010c0  ec532b10          VMOV     r2,r3,d0
0010c4  e9cd0104          STRD     r0,r1,[sp,#0x10]
0010c8  ed9d0b04          VLDR     d0,[sp,#0x10]
0010cc  ec510b10          VMOV     r0,r1,d0
0010d0  f7fffffe          BL       __aeabi_dadd
0010d4  e9cd0106          STRD     r0,r1,[sp,#0x18]
0010d8  ed9d0b06          VLDR     d0,[sp,#0x18]
0010dc  ec510b10          VMOV     r0,r1,d0
0010e0  f7fffffe          BL       __aeabi_d2iz
0010e4  b200              SXTH     r0,r0
0010e6  9008              STR      r0,[sp,#0x20]
0010e8  f44f30fc          MOV      r0,#0x1f800
0010ec  2303              MOVS     r3,#3
0010ee  9000              STR      r0,[sp,#0]
0010f0  480c              LDR      r0,|L2.4388|
0010f2  e9dd1208          LDRD     r1,r2,[sp,#0x20]
0010f6  f7fffffe          BL       eGFX_DrawCircle
;;;422    												Point1+eGFX_PHYSICAL_SCREEN_SIZE_X/1.2,      
;;;423    												Point2+eGFX_PHYSICAL_SCREEN_SIZE_Y/1.2 - FFT_PowerSpectrum[i]/12*TrebleSliderValue,
;;;424    												3,																					
;;;425    												eGFX_RGB888_TO_RGB565(255,0,0)  												
;;;426    												);			
;;;427    								eGFX_DrawCircle(&eGFX_BackBuffer,
0010fa  490b              LDR      r1,|L2.4392|
0010fc  9810              LDR      r0,[sp,#0x40]
0010fe  eb010080          ADD      r0,r1,r0,LSL #2
001102  e000              B        |L2.4358|
                  |L2.4356|
001104  e1ef              B        |L2.5350|
                  |L2.4358|
001106  ed900a00          VLDR     s0,[r0,#0]
00110a  eeb21a08          VMOV.F32 s2,#12.00000000
00110e  eec00a01          VDIV.F32 s1,s0,s2
001112  4807              LDR      r0,|L2.4400|
001114  ed900a00          VLDR     s0,[r0,#0]
001118  ee200a80          VMUL.F32 s0,s1,s0
00111c  e010              B        |L2.4416|
00111e  0000              DCW      0x0000
                  |L2.4384|
                          DCD      0x0001ffe0
                  |L2.4388|
                          DCD      eGFX_BackBuffer
                  |L2.4392|
                          DCD      FFT_PowerSpectrum
                  |L2.4396|
                          DCD      MidSliderValue
                  |L2.4400|
                          DCD      TrebleSliderValue
                  |L2.4404|
001134  43c80000          DCFS     0x43c80000 ; 400
                  |L2.4408|
001138  00000000          DCFD     0x4079000000000000 ; 400
00113c  40790000
                  |L2.4416|
001140  ed8d0a01          VSTR     s0,[sp,#4]
001144  9801              LDR      r0,[sp,#4]
001146  f7fffffe          BL       __aeabi_f2d
00114a  e9cd0104          STRD     r0,r1,[sp,#0x10]
00114e  980c              LDR      r0,[sp,#0x30]
001150  f7fffffe          BL       __aeabi_f2d
001154  ed9f0be5          VLDR     d0,|L2.5356|
001158  ec532b10          VMOV     r2,r3,d0
00115c  e9cd0100          STRD     r0,r1,[sp,#0]
001160  ed9d0b00          VLDR     d0,[sp,#0]
001164  ec510b10          VMOV     r0,r1,d0
001168  f7fffffe          BL       __aeabi_dadd
00116c  e9cd0102          STRD     r0,r1,[sp,#8]
001170  ed9d0b04          VLDR     d0,[sp,#0x10]
001174  ec532b10          VMOV     r2,r3,d0
001178  ed9d0b02          VLDR     d0,[sp,#8]
00117c  ec510b10          VMOV     r0,r1,d0
001180  f7fffffe          BL       __aeabi_dsub
001184  e9cd0106          STRD     r0,r1,[sp,#0x18]
001188  ed9d0b06          VLDR     d0,[sp,#0x18]
00118c  ec510b10          VMOV     r0,r1,d0
001190  f7fffffe          BL       __aeabi_d2iz
001194  b200              SXTH     r0,r0
001196  9009              STR      r0,[sp,#0x24]
001198  980d              LDR      r0,[sp,#0x34]
00119a  f7fffffe          BL       __aeabi_f2d
00119e  ed9f0bd5          VLDR     d0,|L2.5364|
0011a2  ec532b10          VMOV     r2,r3,d0
0011a6  e9cd0104          STRD     r0,r1,[sp,#0x10]
0011aa  ed9d0b04          VLDR     d0,[sp,#0x10]
0011ae  ec510b10          VMOV     r0,r1,d0
0011b2  f7fffffe          BL       __aeabi_dadd
0011b6  e9cd0106          STRD     r0,r1,[sp,#0x18]
0011ba  ed9d0b06          VLDR     d0,[sp,#0x18]
0011be  ec510b10          VMOV     r0,r1,d0
0011c2  f7fffffe          BL       __aeabi_d2iz
0011c6  b200              SXTH     r0,r0
0011c8  9008              STR      r0,[sp,#0x20]
0011ca  f44f30fc          MOV      r0,#0x1f800
0011ce  2303              MOVS     r3,#3
0011d0  9000              STR      r0,[sp,#0]
0011d2  48ca              LDR      r0,|L2.5372|
0011d4  e9dd1208          LDRD     r1,r2,[sp,#0x20]
0011d8  f7fffffe          BL       eGFX_DrawCircle
;;;428    												Point3+eGFX_PHYSICAL_SCREEN_SIZE_X/1.5,
;;;429    												Point4+eGFX_PHYSICAL_SCREEN_SIZE_Y/1.5 - FFT_PowerSpectrum[i]/12*TrebleSliderValue,
;;;430    												3,
;;;431    												eGFX_RGB888_TO_RGB565(255,0,0)
;;;432    												);
;;;433    								eGFX_DrawCircle(&eGFX_BackBuffer,
0011dc  49c8              LDR      r1,|L2.5376|
0011de  9810              LDR      r0,[sp,#0x40]
0011e0  eb010080          ADD      r0,r1,r0,LSL #2
0011e4  ed900a00          VLDR     s0,[r0,#0]
0011e8  eeb21a08          VMOV.F32 s2,#12.00000000
0011ec  eec00a01          VDIV.F32 s1,s0,s2
0011f0  ed9d0a0c          VLDR     s0,[sp,#0x30]
0011f4  ed9f1ac3          VLDR     s2,|L2.5380|
0011f8  ee300a01          VADD.F32 s0,s0,s2
0011fc  48c2              LDR      r0,|L2.5384|
0011fe  ed901a00          VLDR     s2,[r0,#0]
001202  ee000ac1          VMLS.F32 s0,s1,s2
001206  eebd0ac0          VCVT.S32.F32 s0,s0
00120a  ee100a10          VMOV     r0,s0
00120e  b200              SXTH     r0,r0
001210  9009              STR      r0,[sp,#0x24]
001212  f44f30fc          MOV      r0,#0x1f800
001216  9000              STR      r0,[sp,#0]
001218  ed9d0a0d          VLDR     s0,[sp,#0x34]
00121c  eddf0abb          VLDR     s1,|L2.5388|
001220  ee300a20          VADD.F32 s0,s0,s1
001224  eebd0ac0          VCVT.S32.F32 s0,s0
001228  ee100a10          VMOV     r0,s0
00122c  b200              SXTH     r0,r0
00122e  2303              MOVS     r3,#3
001230  9008              STR      r0,[sp,#0x20]
001232  4601              MOV      r1,r0
001234  48b1              LDR      r0,|L2.5372|
001236  9a09              LDR      r2,[sp,#0x24]
001238  f7fffffe          BL       eGFX_DrawCircle
;;;434    												Point3+eGFX_PHYSICAL_SCREEN_SIZE_X/3,
;;;435    												Point4+eGFX_PHYSICAL_SCREEN_SIZE_Y/3 - FFT_PowerSpectrum[i]/12*TrebleSliderValue,
;;;436    												3,
;;;437    												eGFX_RGB888_TO_RGB565(255,0,0)
;;;438    												);
;;;439    								eGFX_DrawCircle(&eGFX_BackBuffer,
00123c  49b0              LDR      r1,|L2.5376|
00123e  9810              LDR      r0,[sp,#0x40]
001240  eb010080          ADD      r0,r1,r0,LSL #2
001244  ed901a00          VLDR     s2,[r0,#0]
001248  eeb20a08          VMOV.F32 s0,#12.00000000
00124c  eec10a00          VDIV.F32 s1,s2,s0
001250  48ad              LDR      r0,|L2.5384|
001252  ed900a00          VLDR     s0,[r0,#0]
001256  ee200a80          VMUL.F32 s0,s1,s0
00125a  ed8d0a01          VSTR     s0,[sp,#4]
00125e  9801              LDR      r0,[sp,#4]
001260  f7fffffe          BL       __aeabi_f2d
001264  e9cd0104          STRD     r0,r1,[sp,#0x10]
001268  980a              LDR      r0,[sp,#0x28]
00126a  f7fffffe          BL       __aeabi_f2d
00126e  ed9f0b9f          VLDR     d0,|L2.5356|
001272  ec532b10          VMOV     r2,r3,d0
001276  e9cd0100          STRD     r0,r1,[sp,#0]
00127a  ed9d0b00          VLDR     d0,[sp,#0]
00127e  ec510b10          VMOV     r0,r1,d0
001282  f7fffffe          BL       __aeabi_dadd
001286  e9cd0102          STRD     r0,r1,[sp,#8]
00128a  ed9d0b04          VLDR     d0,[sp,#0x10]
00128e  ec532b10          VMOV     r2,r3,d0
001292  ed9d0b02          VLDR     d0,[sp,#8]
001296  ec510b10          VMOV     r0,r1,d0
00129a  f7fffffe          BL       __aeabi_dsub
00129e  e9cd0106          STRD     r0,r1,[sp,#0x18]
0012a2  ed9d0b06          VLDR     d0,[sp,#0x18]
0012a6  ec510b10          VMOV     r0,r1,d0
0012aa  f7fffffe          BL       __aeabi_d2iz
0012ae  b200              SXTH     r0,r0
0012b0  9009              STR      r0,[sp,#0x24]
0012b2  f44f30fc          MOV      r0,#0x1f800
0012b6  9000              STR      r0,[sp,#0]
0012b8  ed9d0a0b          VLDR     s0,[sp,#0x2c]
0012bc  eddf0a93          VLDR     s1,|L2.5388|
0012c0  ee300a20          VADD.F32 s0,s0,s1
0012c4  eebd0ac0          VCVT.S32.F32 s0,s0
0012c8  ee100a10          VMOV     r0,s0
0012cc  b200              SXTH     r0,r0
0012ce  2303              MOVS     r3,#3
0012d0  9008              STR      r0,[sp,#0x20]
0012d2  4601              MOV      r1,r0
0012d4  4889              LDR      r0,|L2.5372|
0012d6  9a09              LDR      r2,[sp,#0x24]
0012d8  f7fffffe          BL       eGFX_DrawCircle
;;;440    												Point5+eGFX_PHYSICAL_SCREEN_SIZE_X/3,
;;;441    												Point6+eGFX_PHYSICAL_SCREEN_SIZE_Y/1.5 - FFT_PowerSpectrum[i]/12*TrebleSliderValue,
;;;442    												3,
;;;443    												eGFX_RGB888_TO_RGB565(255,0,0)
;;;444    												);
;;;445    								eGFX_DrawCircle(&eGFX_BackBuffer,
0012dc  4988              LDR      r1,|L2.5376|
0012de  9810              LDR      r0,[sp,#0x40]
0012e0  eb010080          ADD      r0,r1,r0,LSL #2
0012e4  ed900a00          VLDR     s0,[r0,#0]
0012e8  eeb21a08          VMOV.F32 s2,#12.00000000
0012ec  eec00a01          VDIV.F32 s1,s0,s2
0012f0  ed9d0a0a          VLDR     s0,[sp,#0x28]
0012f4  ed9f1a83          VLDR     s2,|L2.5380|
0012f8  ee300a01          VADD.F32 s0,s0,s2
0012fc  4882              LDR      r0,|L2.5384|
0012fe  ed901a00          VLDR     s2,[r0,#0]
001302  ee000ac1          VMLS.F32 s0,s1,s2
001306  eebd0ac0          VCVT.S32.F32 s0,s0
00130a  ee100a10          VMOV     r0,s0
00130e  b200              SXTH     r0,r0
001310  9009              STR      r0,[sp,#0x24]
001312  980b              LDR      r0,[sp,#0x2c]
001314  f7fffffe          BL       __aeabi_f2d
001318  ed9f0b76          VLDR     d0,|L2.5364|
00131c  ec532b10          VMOV     r2,r3,d0
001320  e9cd0104          STRD     r0,r1,[sp,#0x10]
001324  ed9d0b04          VLDR     d0,[sp,#0x10]
001328  ec510b10          VMOV     r0,r1,d0
00132c  f7fffffe          BL       __aeabi_dadd
001330  e9cd0106          STRD     r0,r1,[sp,#0x18]
001334  ed9d0b06          VLDR     d0,[sp,#0x18]
001338  ec510b10          VMOV     r0,r1,d0
00133c  f7fffffe          BL       __aeabi_d2iz
001340  b200              SXTH     r0,r0
001342  9008              STR      r0,[sp,#0x20]
001344  f44f30fc          MOV      r0,#0x1f800
001348  2303              MOVS     r3,#3
00134a  9000              STR      r0,[sp,#0]
00134c  486b              LDR      r0,|L2.5372|
00134e  e9dd1208          LDRD     r1,r2,[sp,#0x20]
001352  f7fffffe          BL       eGFX_DrawCircle
;;;446    												Point5+eGFX_PHYSICAL_SCREEN_SIZE_X/1.5,
;;;447    												Point6+eGFX_PHYSICAL_SCREEN_SIZE_Y/3 - FFT_PowerSpectrum[i]/12*TrebleSliderValue,
;;;448    												3,
;;;449    												eGFX_RGB888_TO_RGB565(255,0,0)
;;;450    												);
;;;451    							eGFX_DrawCircle(&eGFX_BackBuffer,
001356  496a              LDR      r1,|L2.5376|
001358  9810              LDR      r0,[sp,#0x40]
00135a  eb010080          ADD      r0,r1,r0,LSL #2
00135e  edd00a00          VLDR     s1,[r0,#0]
001362  eeb21a08          VMOV.F32 s2,#12.00000000
001366  ee800a81          VDIV.F32 s0,s1,s2
00136a  4867              LDR      r0,|L2.5384|
00136c  edd00a00          VLDR     s1,[r0,#0]
001370  ee200a20          VMUL.F32 s0,s0,s1
001374  ed8d0a01          VSTR     s0,[sp,#4]
001378  9801              LDR      r0,[sp,#4]
00137a  f7fffffe          BL       __aeabi_f2d
00137e  e9cd0104          STRD     r0,r1,[sp,#0x10]
001382  980e              LDR      r0,[sp,#0x38]
001384  f7fffffe          BL       __aeabi_f2d
001388  ed9f0b61          VLDR     d0,|L2.5392|
00138c  ec532b10          VMOV     r2,r3,d0
001390  e9cd0100          STRD     r0,r1,[sp,#0]
001394  ed9d0b00          VLDR     d0,[sp,#0]
001398  ec510b10          VMOV     r0,r1,d0
00139c  f7fffffe          BL       __aeabi_dadd
0013a0  e9cd0102          STRD     r0,r1,[sp,#8]
0013a4  ed9d0b04          VLDR     d0,[sp,#0x10]
0013a8  ec532b10          VMOV     r2,r3,d0
0013ac  ed9d0b02          VLDR     d0,[sp,#8]
0013b0  ec510b10          VMOV     r0,r1,d0
0013b4  f7fffffe          BL       __aeabi_dsub
0013b8  e9cd0106          STRD     r0,r1,[sp,#0x18]
0013bc  ed9d0b06          VLDR     d0,[sp,#0x18]
0013c0  ec510b10          VMOV     r0,r1,d0
0013c4  f7fffffe          BL       __aeabi_d2iz
0013c8  b200              SXTH     r0,r0
0013ca  9009              STR      r0,[sp,#0x24]
0013cc  980f              LDR      r0,[sp,#0x3c]
0013ce  f7fffffe          BL       __aeabi_f2d
0013d2  ed9f0b51          VLDR     d0,|L2.5400|
0013d6  ec532b10          VMOV     r2,r3,d0
0013da  e9cd0104          STRD     r0,r1,[sp,#0x10]
0013de  ed9d0b04          VLDR     d0,[sp,#0x10]
0013e2  ec510b10          VMOV     r0,r1,d0
0013e6  f7fffffe          BL       __aeabi_dadd
0013ea  e9cd0106          STRD     r0,r1,[sp,#0x18]
0013ee  ed9d0b06          VLDR     d0,[sp,#0x18]
0013f2  ec510b10          VMOV     r0,r1,d0
0013f6  f7fffffe          BL       __aeabi_d2iz
0013fa  b200              SXTH     r0,r0
0013fc  9008              STR      r0,[sp,#0x20]
0013fe  f44f30fc          MOV      r0,#0x1f800
001402  2303              MOVS     r3,#3
001404  9000              STR      r0,[sp,#0]
001406  483d              LDR      r0,|L2.5372|
001408  e9dd1208          LDRD     r1,r2,[sp,#0x20]
00140c  f7fffffe          BL       eGFX_DrawCircle
;;;452    												Point1+eGFX_PHYSICAL_SCREEN_SIZE_X/4.3,
;;;453    												Point2+eGFX_PHYSICAL_SCREEN_SIZE_Y/1.2 - FFT_PowerSpectrum[i]/12*TrebleSliderValue,
;;;454    												3,
;;;455    												eGFX_RGB888_TO_RGB565(255,0,0)
;;;456    												);
;;;457    								eGFX_DrawCircle(&eGFX_BackBuffer,
001410  493b              LDR      r1,|L2.5376|
001412  9810              LDR      r0,[sp,#0x40]
001414  eb010080          ADD      r0,r1,r0,LSL #2
001418  edd00a00          VLDR     s1,[r0,#0]
00141c  eeb21a08          VMOV.F32 s2,#12.00000000
001420  ee800a81          VDIV.F32 s0,s1,s2
001424  4838              LDR      r0,|L2.5384|
001426  edd00a00          VLDR     s1,[r0,#0]
00142a  ee200a20          VMUL.F32 s0,s0,s1
00142e  ed8d0a01          VSTR     s0,[sp,#4]
001432  9801              LDR      r0,[sp,#4]
001434  f7fffffe          BL       __aeabi_f2d
001438  e9cd0104          STRD     r0,r1,[sp,#0x10]
00143c  980e              LDR      r0,[sp,#0x38]
00143e  f7fffffe          BL       __aeabi_f2d
001442  ed9f0b37          VLDR     d0,|L2.5408|
001446  ec532b10          VMOV     r2,r3,d0
00144a  e9cd0100          STRD     r0,r1,[sp,#0]
00144e  ed9d0b00          VLDR     d0,[sp,#0]
001452  ec510b10          VMOV     r0,r1,d0
001456  f7fffffe          BL       __aeabi_dadd
00145a  e9cd0102          STRD     r0,r1,[sp,#8]
00145e  ed9d0b04          VLDR     d0,[sp,#0x10]
001462  ec532b10          VMOV     r2,r3,d0
001466  ed9d0b02          VLDR     d0,[sp,#8]
00146a  ec510b10          VMOV     r0,r1,d0
00146e  f7fffffe          BL       __aeabi_dsub
001472  e9cd0106          STRD     r0,r1,[sp,#0x18]
001476  ed9d0b06          VLDR     d0,[sp,#0x18]
00147a  ec510b10          VMOV     r0,r1,d0
00147e  f7fffffe          BL       __aeabi_d2iz
001482  b200              SXTH     r0,r0
001484  9009              STR      r0,[sp,#0x24]
001486  980f              LDR      r0,[sp,#0x3c]
001488  f7fffffe          BL       __aeabi_f2d
00148c  ed1f0bd6          VLDR     d0,|L2.4408|
001490  ec532b10          VMOV     r2,r3,d0
001494  e9cd0104          STRD     r0,r1,[sp,#0x10]
001498  ed9d0b04          VLDR     d0,[sp,#0x10]
00149c  ec510b10          VMOV     r0,r1,d0
0014a0  f7fffffe          BL       __aeabi_dadd
0014a4  e9cd0106          STRD     r0,r1,[sp,#0x18]
0014a8  ed9d0b06          VLDR     d0,[sp,#0x18]
0014ac  ec510b10          VMOV     r0,r1,d0
0014b0  f7fffffe          BL       __aeabi_d2iz
0014b4  b200              SXTH     r0,r0
0014b6  9008              STR      r0,[sp,#0x20]
0014b8  f44f30fc          MOV      r0,#0x1f800
0014bc  2303              MOVS     r3,#3
0014be  9000              STR      r0,[sp,#0]
0014c0  480e              LDR      r0,|L2.5372|
0014c2  e9dd1208          LDRD     r1,r2,[sp,#0x20]
0014c6  f7fffffe          BL       eGFX_DrawCircle
                  |L2.5322|
0014ca  9810              LDR      r0,[sp,#0x40]         ;284
0014cc  1c40              ADDS     r0,r0,#1              ;284
0014ce  9010              STR      r0,[sp,#0x40]         ;284
                  |L2.5328|
0014d0  9810              LDR      r0,[sp,#0x40]         ;284
0014d2  f5b07ff0          CMP      r0,#0x1e0             ;284
0014d6  f6feadb9          BLT      |L2.76|
;;;458    												Point1+eGFX_PHYSICAL_SCREEN_SIZE_X/1.2,
;;;459    												Point2+eGFX_PHYSICAL_SCREEN_SIZE_Y/4.3 - FFT_PowerSpectrum[i]/12*TrebleSliderValue,
;;;460    												3,
;;;461    												eGFX_RGB888_TO_RGB565(255,0,0)
;;;462    												);}
;;;463    				}	
;;;464    				
;;;465    				
;;;466    														
;;;467    				eGFX_Dump(&eGFX_BackBuffer);
0014da  4808              LDR      r0,|L2.5372|
0014dc  f7fffffe          BL       eGFX_Dump
;;;468    					
;;;469    				NextBufferReady = 0;
0014e0  2000              MOVS     r0,#0
0014e2  4911              LDR      r1,|L2.5416|
0014e4  6008              STR      r0,[r1,#0]  ; NextBufferReady
                  |L2.5350|
;;;470    		}
;;;471    	}
0014e6  b011              ADD      sp,sp,#0x44
0014e8  bd00              POP      {pc}
;;;472    
                          ENDP

0014ea  0000              DCW      0x0000
                  |L2.5356|
0014ec  aaaaaaab          DCFD     0x4066aaaaaaaaaaab ; 181.33333333333334
0014f0  4066aaaa
                  |L2.5364|
0014f4  00000000          DCFD     0x4074000000000000 ; 320
0014f8  40740000
                  |L2.5372|
                          DCD      eGFX_BackBuffer
                  |L2.5376|
                          DCD      FFT_PowerSpectrum
                  |L2.5380|
001504  42b40000          DCFS     0x42b40000 ; 90
                  |L2.5384|
                          DCD      TrebleSliderValue
                  |L2.5388|
00150c  43200000          DCFS     0x43200000 ; 160
                  |L2.5392|
001510  55555556          DCFD     0x406c555555555556 ; 226.66666666666669
001514  406c5555
                  |L2.5400|
001518  a0be82fa          DCFD     0x405be82fa0be82fa ; 111.62790697674419
00151c  405be82f
                  |L2.5408|
001520  82fa0be9          DCFD     0x404fa0be82fa0be9 ; 63.255813953488378
001524  404fa0be
                  |L2.5416|
                          DCD      NextBufferReady

                          AREA ||i.DMIC0_IRQHandler||, CODE, READONLY, ALIGN=2

                  DMIC0_IRQHandler PROC
;;;93     
;;;94     void DMIC0_IRQHandler()
000000  4922              LDR      r1,|L3.140|
;;;95     {
;;;96     	int16_t NextSampleIn;
;;;97     	
;;;98     	if(DMIC0->CHANNEL[1].FIFO_STATUS & DMIC_CHANNEL_FIFO_STATUS_INT_MASK)
000002  6809              LDR      r1,[r1,#0]
000004  f0010101          AND      r1,r1,#1
000008  2900              CMP      r1,#0
00000a  d03d              BEQ      |L3.136|
;;;99     	{
;;;100    		DMIC0->CHANNEL[1].FIFO_STATUS |= DMIC_CHANNEL_FIFO_STATUS_INT_MASK;
00000c  491f              LDR      r1,|L3.140|
00000e  6809              LDR      r1,[r1,#0]
000010  f0410201          ORR      r2,r1,#1
000014  491d              LDR      r1,|L3.140|
000016  600a              STR      r2,[r1,#0]
;;;101    
;;;102    		
;;;103    		NextSampleIn = (int16_t)(DMIC0->CHANNEL[1].FIFO_DATA);
000018  1d09              ADDS     r1,r1,#4
00001a  6809              LDR      r1,[r1,#0]
00001c  b208              SXTH     r0,r1
;;;104    	
;;;105        BackgroundMicBuffer[BackgroundBufferIdx] =  (float)((NextSampleIn))  / 
00001e  ee000a10          VMOV     s0,r0
000022  eeb80ac0          VCVT.F32.S32 s0,s0
000026  eddf0a1a          VLDR     s1,|L3.144|
00002a  ee801a20          VDIV.F32 s2,s0,s1
00002e  4919              LDR      r1,|L3.148|
000030  6809              LDR      r1,[r1,#0]  ; BackgroundMicBuffer
000032  4a19              LDR      r2,|L3.152|
000034  6812              LDR      r2,[r2,#0]  ; BackgroundBufferIdx
000036  eb010182          ADD      r1,r1,r2,LSL #2
00003a  ed811a00          VSTR     s2,[r1,#0]
;;;106    ((float)(1<<15));
;;;107    		
;;;108    		BackgroundBufferIdx++;
00003e  4916              LDR      r1,|L3.152|
000040  6809              LDR      r1,[r1,#0]  ; BackgroundBufferIdx
000042  1c49              ADDS     r1,r1,#1
000044  4a14              LDR      r2,|L3.152|
000046  6011              STR      r1,[r2,#0]  ; BackgroundBufferIdx
;;;109    
;;;110    		if(BackgroundBufferIdx == BUFFER_SIZE)
000048  4611              MOV      r1,r2
00004a  6809              LDR      r1,[r1,#0]  ; BackgroundBufferIdx
00004c  f5b16f80          CMP      r1,#0x400
000050  d11a              BNE      |L3.136|
;;;111    		{
;;;112    			  
;;;113    
;;;114    /* Swap Buffers */
;;;115    			if(BackgroundMicBuffer == MicBuffer1)
000052  4910              LDR      r1,|L3.148|
000054  6809              LDR      r1,[r1,#0]  ; BackgroundMicBuffer
000056  4a11              LDR      r2,|L3.156|
000058  4291              CMP      r1,r2
00005a  d106              BNE      |L3.106|
;;;116    				{
;;;117    					BackgroundMicBuffer = MicBuffer2;
00005c  4910              LDR      r1,|L3.160|
00005e  4a0d              LDR      r2,|L3.148|
000060  6011              STR      r1,[r2,#0]  ; BackgroundMicBuffer
;;;118    					MicBuffer = MicBuffer1;
000062  490e              LDR      r1,|L3.156|
000064  4a0f              LDR      r2,|L3.164|
000066  6011              STR      r1,[r2,#0]  ; MicBuffer
000068  e005              B        |L3.118|
                  |L3.106|
;;;119    				}
;;;120    				else
;;;121    				{
;;;122    					BackgroundMicBuffer = MicBuffer1;
00006a  490c              LDR      r1,|L3.156|
00006c  4a09              LDR      r2,|L3.148|
00006e  6011              STR      r1,[r2,#0]  ; BackgroundMicBuffer
;;;123    					MicBuffer = MicBuffer2;
000070  490b              LDR      r1,|L3.160|
000072  4a0c              LDR      r2,|L3.164|
000074  6011              STR      r1,[r2,#0]  ; MicBuffer
                  |L3.118|
;;;124    				}
;;;125    
;;;126    				if(NextBufferReady == 0)
000076  490c              LDR      r1,|L3.168|
000078  6809              LDR      r1,[r1,#0]  ; NextBufferReady
00007a  b911              CBNZ     r1,|L3.130|
;;;127    					NextBufferReady = 1;
00007c  2101              MOVS     r1,#1
00007e  4a0a              LDR      r2,|L3.168|
000080  6011              STR      r1,[r2,#0]  ; NextBufferReady
                  |L3.130|
;;;128    				
;;;129    	  		BackgroundBufferIdx=0;
000082  2100              MOVS     r1,#0
000084  4a04              LDR      r2,|L3.152|
000086  6011              STR      r1,[r2,#0]  ; BackgroundBufferIdx
                  |L3.136|
;;;130    	  }
;;;131      }
;;;132    }
000088  4770              BX       lr
;;;133    
                          ENDP

00008a  0000              DCW      0x0000
                  |L3.140|
                          DCD      0x40090184
                  |L3.144|
000090  47000000          DCFS     0x47000000 ; 32768
                  |L3.148|
                          DCD      BackgroundMicBuffer
                  |L3.152|
                          DCD      BackgroundBufferIdx
                  |L3.156|
                          DCD      MicBuffer1
                  |L3.160|
                          DCD      MicBuffer2
                  |L3.164|
                          DCD      MicBuffer
                  |L3.168|
                          DCD      NextBufferReady

                          AREA ||i.EMC_MirrorChipAddr||, CODE, READONLY, ALIGN=1

                  EMC_MirrorChipAddr PROC
;;;300     */
;;;301    static void EMC_MirrorChipAddr(EMC_Type *base, bool enable)
000000  b121              CBZ      r1,|L4.12|
;;;302    {
;;;303        if (enable) 
;;;304        {
;;;305            base->CONTROL |= EMC_CONTROL_M_MASK;
000002  6802              LDR      r2,[r0,#0]
000004  f0420202          ORR      r2,r2,#2
000008  6002              STR      r2,[r0,#0]
00000a  e003              B        |L4.20|
                  |L4.12|
;;;306        }
;;;307        else 
;;;308        {
;;;309            base->CONTROL &= ~EMC_CONTROL_M_MASK;
00000c  6802              LDR      r2,[r0,#0]
00000e  f0220202          BIC      r2,r2,#2
000012  6002              STR      r2,[r0,#0]
                  |L4.20|
;;;310        }
;;;311    }
000014  4770              BX       lr
;;;312    
                          ENDP


                          AREA ||i.EqualizerScreen||, CODE, READONLY, ALIGN=2

                  EqualizerScreen PROC
;;;730    
;;;731    void EqualizerScreen()
000000  b500              PUSH     {lr}
;;;732    {
000002  b091              SUB      sp,sp,#0x44
;;;733    
;;;734    	  eGFX_ImagePlane_Clear(&eGFX_BackBuffer);
000004  48fd              LDR      r0,|L5.1020|
000006  f7fffffe          BL       eGFX_ImagePlane_Clear
;;;735    				
;;;736         if (kStatus_Success == FT5406_GetSingleTouch(&touch_handle, &touch_event, &y, &x))
00000a  4bfd              LDR      r3,|L5.1024|
00000c  4afd              LDR      r2,|L5.1028|
00000e  49fe              LDR      r1,|L5.1032|
000010  48fe              LDR      r0,|L5.1036|
000012  f7fffffe          BL       FT5406_GetSingleTouch
000016  b9d0              CBNZ     r0,|L5.78|
;;;737            {
;;;738             if (touch_event == kTouch_Contact)
000018  48fb              LDR      r0,|L5.1032|
00001a  7800              LDRB     r0,[r0,#0]  ; touch_event
00001c  2802              CMP      r0,#2
00001e  d116              BNE      |L5.78|
;;;739                {
;;;740    							  if(	 x>=SLIDER_REGION_START_X && x<=SLIDER_REGION_STOP_X 
000020  48f7              LDR      r0,|L5.1024|
000022  6800              LDR      r0,[r0,#0]  ; x
000024  2855              CMP      r0,#0x55
000026  db12              BLT      |L5.78|
000028  48f9              LDR      r0,|L5.1040|
00002a  8900              LDRH     r0,[r0,#8]  ; Sprite_16BPP_565_Mushroom_Super_icon_red
00002c  3055              ADDS     r0,r0,#0x55
00002e  49f4              LDR      r1,|L5.1024|
000030  6809              LDR      r1,[r1,#0]  ; x
000032  4288              CMP      r0,r1
000034  db0b              BLT      |L5.78|
;;;741    									&& y>SLIDER_REGION_START_Y && y<= SLIDER_REGION_STOP_Y)
000036  48f3              LDR      r0,|L5.1028|
000038  6800              LDR      r0,[r0,#0]  ; y
00003a  2832              CMP      r0,#0x32
00003c  dd07              BLE      |L5.78|
00003e  48f1              LDR      r0,|L5.1028|
000040  6800              LDR      r0,[r0,#0]  ; y
000042  28c5              CMP      r0,#0xc5
000044  dc03              BGT      |L5.78|
;;;742    								{
;;;743    										BassSliderPosition = y;
000046  48ef              LDR      r0,|L5.1028|
000048  6800              LDR      r0,[r0,#0]  ; y
00004a  49f2              LDR      r1,|L5.1044|
00004c  6008              STR      r0,[r1,#0]  ; BassSliderPosition
                  |L5.78|
;;;744    								}
;;;745                }
;;;746            }
;;;747    				
;;;748    			if (kStatus_Success == FT5406_GetSingleTouch(&touch_handle, &touch_event, &y2, &x2))
00004e  4bf2              LDR      r3,|L5.1048|
000050  4af2              LDR      r2,|L5.1052|
000052  49ed              LDR      r1,|L5.1032|
000054  48ed              LDR      r0,|L5.1036|
000056  f7fffffe          BL       FT5406_GetSingleTouch
00005a  b9d0              CBNZ     r0,|L5.146|
;;;749            {
;;;750                if (touch_event == kTouch_Contact)
00005c  48ea              LDR      r0,|L5.1032|
00005e  7800              LDRB     r0,[r0,#0]  ; touch_event
000060  2802              CMP      r0,#2
000062  d116              BNE      |L5.146|
;;;751                {
;;;752    							if(	 x2>=SLIDER2_REGION_START_X && x2<=SLIDER2_REGION_STOP_X 
000064  48ec              LDR      r0,|L5.1048|
000066  6800              LDR      r0,[r0,#0]  ; x2
000068  28a0              CMP      r0,#0xa0
00006a  db12              BLT      |L5.146|
00006c  48e8              LDR      r0,|L5.1040|
00006e  8900              LDRH     r0,[r0,#8]  ; Sprite_16BPP_565_Mushroom_Super_icon_red
000070  30a0              ADDS     r0,r0,#0xa0
000072  49e9              LDR      r1,|L5.1048|
000074  6809              LDR      r1,[r1,#0]  ; x2
000076  4288              CMP      r0,r1
000078  db0b              BLT      |L5.146|
;;;753    									&& y2>SLIDER2_REGION_START_Y && y2<= SLIDER2_REGION_STOP_Y)
00007a  48e8              LDR      r0,|L5.1052|
00007c  6800              LDR      r0,[r0,#0]  ; y2
00007e  2832              CMP      r0,#0x32
000080  dd07              BLE      |L5.146|
000082  48e6              LDR      r0,|L5.1052|
000084  6800              LDR      r0,[r0,#0]  ; y2
000086  28c5              CMP      r0,#0xc5
000088  dc03              BGT      |L5.146|
;;;754    								{
;;;755    										MidSliderPosition = y2;
00008a  48e4              LDR      r0,|L5.1052|
00008c  6800              LDR      r0,[r0,#0]  ; y2
00008e  49e4              LDR      r1,|L5.1056|
000090  6008              STR      r0,[r1,#0]  ; MidSliderPosition
                  |L5.146|
;;;756    								}
;;;757                }
;;;758            }
;;;759    				
;;;760    			if (kStatus_Success == FT5406_GetSingleTouch(&touch_handle, &touch_event, &y3, &x3))
000092  4be4              LDR      r3,|L5.1060|
000094  4ae4              LDR      r2,|L5.1064|
000096  49dc              LDR      r1,|L5.1032|
000098  48dc              LDR      r0,|L5.1036|
00009a  f7fffffe          BL       FT5406_GetSingleTouch
00009e  b9d0              CBNZ     r0,|L5.214|
;;;761            {
;;;762                if (touch_event == kTouch_Contact)
0000a0  48d9              LDR      r0,|L5.1032|
0000a2  7800              LDRB     r0,[r0,#0]  ; touch_event
0000a4  2802              CMP      r0,#2
0000a6  d116              BNE      |L5.214|
;;;763                {
;;;764    							  if(	 x3>=SLIDER3_REGION_START_X && x3<=SLIDER3_REGION_STOP_X 
0000a8  48de              LDR      r0,|L5.1060|
0000aa  6800              LDR      r0,[r0,#0]  ; x3
0000ac  28eb              CMP      r0,#0xeb
0000ae  db12              BLT      |L5.214|
0000b0  48d7              LDR      r0,|L5.1040|
0000b2  8900              LDRH     r0,[r0,#8]  ; Sprite_16BPP_565_Mushroom_Super_icon_red
0000b4  30eb              ADDS     r0,r0,#0xeb
0000b6  49db              LDR      r1,|L5.1060|
0000b8  6809              LDR      r1,[r1,#0]  ; x3
0000ba  4288              CMP      r0,r1
0000bc  db0b              BLT      |L5.214|
;;;765    									&& y3>SLIDER3_REGION_START_Y && y3<= SLIDER3_REGION_STOP_Y)
0000be  48da              LDR      r0,|L5.1064|
0000c0  6800              LDR      r0,[r0,#0]  ; y3
0000c2  2832              CMP      r0,#0x32
0000c4  dd07              BLE      |L5.214|
0000c6  48d8              LDR      r0,|L5.1064|
0000c8  6800              LDR      r0,[r0,#0]  ; y3
0000ca  28c5              CMP      r0,#0xc5
0000cc  dc03              BGT      |L5.214|
;;;766    								{
;;;767    										TrebleSliderPosition = y3;
0000ce  48d6              LDR      r0,|L5.1064|
0000d0  6800              LDR      r0,[r0,#0]  ; y3
0000d2  49d6              LDR      r1,|L5.1068|
0000d4  6008              STR      r0,[r1,#0]  ; TrebleSliderPosition
                  |L5.214|
;;;768    								}
;;;769                }
;;;770            }
;;;771    				
;;;772    			if (kStatus_Success == FT5406_GetSingleTouch(&touch_handle, &touch_event, &y4, &x4))
0000d6  4bd6              LDR      r3,|L5.1072|
0000d8  4ad6              LDR      r2,|L5.1076|
0000da  49cb              LDR      r1,|L5.1032|
0000dc  48cb              LDR      r0,|L5.1036|
0000de  f7fffffe          BL       FT5406_GetSingleTouch
0000e2  b9e0              CBNZ     r0,|L5.286|
;;;773            {
;;;774                if (touch_event == kTouch_Contact)
0000e4  48c8              LDR      r0,|L5.1032|
0000e6  7800              LDRB     r0,[r0,#0]  ; touch_event
0000e8  2802              CMP      r0,#2
0000ea  d118              BNE      |L5.286|
;;;775                {
;;;776    							  if(	 x4>=SLIDER4_REGION_START_X && x4<=SLIDER4_REGION_STOP_X 
0000ec  48d0              LDR      r0,|L5.1072|
0000ee  6800              LDR      r0,[r0,#0]  ; x4
0000f0  f5b07fa7          CMP      r0,#0x14e
0000f4  dd13              BLE      |L5.286|
0000f6  48c6              LDR      r0,|L5.1040|
0000f8  8900              LDRH     r0,[r0,#8]  ; Sprite_16BPP_565_Mushroom_Super_icon_red
0000fa  f200104f          ADD      r0,r0,#0x14f
0000fe  49cc              LDR      r1,|L5.1072|
000100  6809              LDR      r1,[r1,#0]  ; x4
000102  4288              CMP      r0,r1
000104  db0b              BLT      |L5.286|
;;;777    									&& y4>SLIDER4_REGION_START_Y && y4<= SLIDER4_REGION_STOP_Y)
000106  48cb              LDR      r0,|L5.1076|
000108  6800              LDR      r0,[r0,#0]  ; y4
00010a  2832              CMP      r0,#0x32
00010c  dd07              BLE      |L5.286|
00010e  48c9              LDR      r0,|L5.1076|
000110  6800              LDR      r0,[r0,#0]  ; y4
000112  28c5              CMP      r0,#0xc5
000114  dc03              BGT      |L5.286|
;;;778    								{
;;;779    										VolumeSliderPosition = y4;
000116  48c7              LDR      r0,|L5.1076|
000118  6800              LDR      r0,[r0,#0]  ; y4
00011a  49c7              LDR      r1,|L5.1080|
00011c  6008              STR      r0,[r1,#0]  ; VolumeSliderPosition
                  |L5.286|
;;;780    								}
;;;781                }
;;;782            }
;;;783    				
;;;784    				eGFX_printf_HorizontalCentered_Colored(&eGFX_BackBuffer,
00011e  a0c7              ADR      r0,|L5.1084|
000120  4bc9              LDR      r3,|L5.1096|
000122  4aca              LDR      r2,|L5.1100|
000124  21fc              MOVS     r1,#0xfc
000126  9000              STR      r0,[sp,#0]
000128  48b4              LDR      r0,|L5.1020|
00012a  f7fffffe          BL       eGFX_printf_HorizontalCentered_Colored
;;;785    											eGFX_PHYSICAL_SCREEN_SIZE_Y-20, 
;;;786    											&OCR_A_Extended__20px__Bold__SingleBitPerPixelGridFit_1BPP,   
;;;787    											eGFX_RGB888_TO_RGB565(255,255,255),
;;;788    											"Equalizer");
;;;789    				
;;;790    				// Home Button
;;;791    				eGFX_Blit(&eGFX_BackBuffer,
00012e  4bc8              LDR      r3,|L5.1104|
000130  2200              MOVS     r2,#0
000132  f44f71d2          MOV      r1,#0x1a4
000136  48b1              LDR      r0,|L5.1020|
000138  f7fffffe          BL       eGFX_Blit
;;;792    								eGFX_PHYSICAL_SCREEN_SIZE_X-60, // x coordinate
;;;793    								0,			//y coordinate 
;;;794    								&Sprite_16BPP_565_home_icon);
;;;795    				
;;;796    				// Shattered Button
;;;797    				eGFX_Blit(&eGFX_BackBuffer,
00013c  4bc5              LDR      r3,|L5.1108|
00013e  22d4              MOVS     r2,#0xd4
000140  210a              MOVS     r1,#0xa
000142  48ae              LDR      r0,|L5.1020|
000144  f7fffffe          BL       eGFX_Blit
;;;798    								10, //x coordinate
;;;799    								eGFX_PHYSICAL_SCREEN_SIZE_Y - 60,			//y coordinate 
;;;800    								&Sprite_16BPP_565_piramid_silver);
;;;801    				
;;;802    				// Circles Button
;;;803    				eGFX_Blit(&eGFX_BackBuffer,
000148  4bc3              LDR      r3,|L5.1112|
00014a  22d4              MOVS     r2,#0xd4
00014c  f44f71d2          MOV      r1,#0x1a4
000150  48aa              LDR      r0,|L5.1020|
000152  f7fffffe          BL       eGFX_Blit
;;;804    								eGFX_PHYSICAL_SCREEN_SIZE_X - 60, //x coordinate
;;;805    								eGFX_PHYSICAL_SCREEN_SIZE_Y - 60,			//y coordinate 
;;;806    								&Sprite_16BPP_565_whirl_silver);
;;;807    
;;;808    				eGFX_printf(&eGFX_BackBuffer,(SLIDER_REGION_STOP_X/2 - 12),(SLIDER_REGION_START_Y - 40), 
000156  48c1              LDR      r0,|L5.1116|
000158  6800              LDR      r0,[r0,#0]  ; BassSliderValue
00015a  f7fffffe          BL       __aeabi_f2d
00015e  e9cd0106          STRD     r0,r1,[sp,#0x18]
000162  f44f6080          MOV      r0,#0x400
000166  9004              STR      r0,[sp,#0x10]
000168  9806              LDR      r0,[sp,#0x18]
00016a  e9cd0102          STRD     r0,r1,[sp,#8]
00016e  a0bc              ADR      r0,|L5.1120|
000170  9000              STR      r0,[sp,#0]
000172  48a7              LDR      r0,|L5.1040|
000174  8900              LDRH     r0,[r0,#8]  ; Sprite_16BPP_565_Mushroom_Super_icon_red
000176  9008              STR      r0,[sp,#0x20]
000178  eb0070d0          ADD      r0,r0,r0,LSR #31
00017c  1040              ASRS     r0,r0,#1
00017e  3049              ADDS     r0,r0,#0x49
000180  b200              SXTH     r0,r0
000182  4bb2              LDR      r3,|L5.1100|
000184  220a              MOVS     r2,#0xa
000186  4601              MOV      r1,r0
000188  9005              STR      r0,[sp,#0x14]
00018a  489c              LDR      r0,|L5.1020|
00018c  f7fffffe          BL       eGFX_printf
;;;809    				&OCR_A_Extended__20px__Bold__SingleBitPerPixelGridFit_1BPP,"%.2f", BassSliderValue,eGFX_RGB888_TO_RGB565(0,128,0)); 
;;;810    				
;;;811    				eGFX_printf(&eGFX_BackBuffer,(SLIDER2_REGION_STOP_X/2 - 12),(SLIDER2_REGION_START_Y - 40), 
000190  48b5              LDR      r0,|L5.1128|
000192  6800              LDR      r0,[r0,#0]  ; MidSliderValue
000194  f7fffffe          BL       __aeabi_f2d
000198  e9cd0106          STRD     r0,r1,[sp,#0x18]
00019c  48aa              LDR      r0,|L5.1096|
00019e  381f              SUBS     r0,r0,#0x1f
0001a0  9004              STR      r0,[sp,#0x10]
0001a2  9806              LDR      r0,[sp,#0x18]
0001a4  e9cd0102          STRD     r0,r1,[sp,#8]
0001a8  a0ad              ADR      r0,|L5.1120|
0001aa  9000              STR      r0,[sp,#0]
0001ac  4898              LDR      r0,|L5.1040|
0001ae  8900              LDRH     r0,[r0,#8]  ; Sprite_16BPP_565_Mushroom_Super_icon_red
0001b0  9008              STR      r0,[sp,#0x20]
0001b2  eb0070d0          ADD      r0,r0,r0,LSR #31
0001b6  1040              ASRS     r0,r0,#1
0001b8  3094              ADDS     r0,r0,#0x94
0001ba  b200              SXTH     r0,r0
0001bc  4ba3              LDR      r3,|L5.1100|
0001be  220a              MOVS     r2,#0xa
0001c0  4601              MOV      r1,r0
0001c2  9005              STR      r0,[sp,#0x14]
0001c4  488d              LDR      r0,|L5.1020|
0001c6  f7fffffe          BL       eGFX_printf
;;;812    				&OCR_A_Extended__20px__Bold__SingleBitPerPixelGridFit_1BPP,"%.2f", MidSliderValue,eGFX_RGB888_TO_RGB565(255,255,0));
;;;813    				
;;;814    				eGFX_printf(&eGFX_BackBuffer,(SLIDER3_REGION_STOP_X/2 - 12),(SLIDER3_REGION_START_Y - 40), 
0001ca  48a8              LDR      r0,|L5.1132|
0001cc  6800              LDR      r0,[r0,#0]  ; TrebleSliderValue
0001ce  f7fffffe          BL       __aeabi_f2d
0001d2  e9cd0106          STRD     r0,r1,[sp,#0x18]
0001d6  f44f30fc          MOV      r0,#0x1f800
0001da  9004              STR      r0,[sp,#0x10]
0001dc  9806              LDR      r0,[sp,#0x18]
0001de  e9cd0102          STRD     r0,r1,[sp,#8]
0001e2  a09f              ADR      r0,|L5.1120|
0001e4  9000              STR      r0,[sp,#0]
0001e6  488a              LDR      r0,|L5.1040|
0001e8  8900              LDRH     r0,[r0,#8]  ; Sprite_16BPP_565_Mushroom_Super_icon_red
0001ea  9008              STR      r0,[sp,#0x20]
0001ec  eb0070d0          ADD      r0,r0,r0,LSR #31
0001f0  1040              ASRS     r0,r0,#1
0001f2  30df              ADDS     r0,r0,#0xdf
0001f4  b200              SXTH     r0,r0
0001f6  4b95              LDR      r3,|L5.1100|
0001f8  220a              MOVS     r2,#0xa
0001fa  4601              MOV      r1,r0
0001fc  9005              STR      r0,[sp,#0x14]
0001fe  487f              LDR      r0,|L5.1020|
000200  f7fffffe          BL       eGFX_printf
;;;815    				&OCR_A_Extended__20px__Bold__SingleBitPerPixelGridFit_1BPP,"%.2f", TrebleSliderValue,eGFX_RGB888_TO_RGB565(255,0,0));
;;;816    				
;;;817    				eGFX_printf(&eGFX_BackBuffer,(SLIDER4_REGION_STOP_X/2 - 12),(SLIDER4_REGION_START_Y - 40), 
000204  489a              LDR      r0,|L5.1136|
000206  6800              LDR      r0,[r0,#0]  ; VolumeSliderValue
000208  f7fffffe          BL       __aeabi_f2d
00020c  e9cd0106          STRD     r0,r1,[sp,#0x18]
000210  201f              MOVS     r0,#0x1f
000212  9004              STR      r0,[sp,#0x10]
000214  9806              LDR      r0,[sp,#0x18]
000216  e9cd0102          STRD     r0,r1,[sp,#8]
00021a  a091              ADR      r0,|L5.1120|
00021c  9000              STR      r0,[sp,#0]
00021e  487c              LDR      r0,|L5.1040|
000220  8900              LDRH     r0,[r0,#8]  ; Sprite_16BPP_565_Mushroom_Super_icon_red
000222  9008              STR      r0,[sp,#0x20]
000224  eb0070d0          ADD      r0,r0,r0,LSR #31
000228  1040              ASRS     r0,r0,#1
00022a  f2001043          ADD      r0,r0,#0x143
00022e  b200              SXTH     r0,r0
000230  4b86              LDR      r3,|L5.1100|
000232  220a              MOVS     r2,#0xa
000234  4601              MOV      r1,r0
000236  9005              STR      r0,[sp,#0x14]
000238  4870              LDR      r0,|L5.1020|
00023a  f7fffffe          BL       eGFX_printf
;;;818    				&OCR_A_Extended__20px__Bold__SingleBitPerPixelGridFit_1BPP,"%.2f", VolumeSliderValue,eGFX_RGB888_TO_RGB565(0,0,255));
;;;819    				
;;;820    				eGFX_printf(&eGFX_BackBuffer,(SLIDER_REGION_STOP_X/2 - 12),(SLIDER_REGION_STOP_Y + 30), 
00023e  4887              LDR      r0,|L5.1116|
000240  6800              LDR      r0,[r0,#0]  ; BassSliderValue
000242  f7fffffe          BL       __aeabi_f2d
000246  e9cd0106          STRD     r0,r1,[sp,#0x18]
00024a  e9cd0102          STRD     r0,r1,[sp,#8]
00024e  a089              ADR      r0,|L5.1140|
000250  9000              STR      r0,[sp,#0]
000252  486f              LDR      r0,|L5.1040|
000254  8900              LDRH     r0,[r0,#8]  ; Sprite_16BPP_565_Mushroom_Super_icon_red
000256  9008              STR      r0,[sp,#0x20]
000258  eb0070d0          ADD      r0,r0,r0,LSR #31
00025c  1040              ASRS     r0,r0,#1
00025e  3049              ADDS     r0,r0,#0x49
000260  b200              SXTH     r0,r0
000262  4b7a              LDR      r3,|L5.1100|
000264  22e3              MOVS     r2,#0xe3
000266  4601              MOV      r1,r0
000268  9005              STR      r0,[sp,#0x14]
00026a  4864              LDR      r0,|L5.1020|
00026c  f7fffffe          BL       eGFX_printf
;;;821    				&OCR_A_Extended__20px__Bold__SingleBitPerPixelGridFit_1BPP,"Low", BassSliderValue); 
;;;822    				
;;;823    				eGFX_printf(&eGFX_BackBuffer,(SLIDER2_REGION_STOP_X/2 - 12),(SLIDER2_REGION_STOP_Y + 30), 
000270  487d              LDR      r0,|L5.1128|
000272  6800              LDR      r0,[r0,#0]  ; MidSliderValue
000274  f7fffffe          BL       __aeabi_f2d
000278  e9cd0106          STRD     r0,r1,[sp,#0x18]
00027c  e9cd0102          STRD     r0,r1,[sp,#8]
000280  a07d              ADR      r0,|L5.1144|
000282  9000              STR      r0,[sp,#0]
000284  4862              LDR      r0,|L5.1040|
000286  8900              LDRH     r0,[r0,#8]  ; Sprite_16BPP_565_Mushroom_Super_icon_red
000288  9008              STR      r0,[sp,#0x20]
00028a  eb0070d0          ADD      r0,r0,r0,LSR #31
00028e  1040              ASRS     r0,r0,#1
000290  3094              ADDS     r0,r0,#0x94
000292  b200              SXTH     r0,r0
000294  4b6d              LDR      r3,|L5.1100|
000296  22e3              MOVS     r2,#0xe3
000298  4601              MOV      r1,r0
00029a  9005              STR      r0,[sp,#0x14]
00029c  4857              LDR      r0,|L5.1020|
00029e  f7fffffe          BL       eGFX_printf
;;;824    				&OCR_A_Extended__20px__Bold__SingleBitPerPixelGridFit_1BPP,"Mid", MidSliderValue);
;;;825    				
;;;826    				eGFX_printf(&eGFX_BackBuffer,(SLIDER3_REGION_STOP_X/2 - 12),(SLIDER3_REGION_STOP_Y + 30), 
0002a2  4872              LDR      r0,|L5.1132|
0002a4  6800              LDR      r0,[r0,#0]  ; TrebleSliderValue
0002a6  f7fffffe          BL       __aeabi_f2d
0002aa  e9cd0106          STRD     r0,r1,[sp,#0x18]
0002ae  e9cd0102          STRD     r0,r1,[sp,#8]
0002b2  a072              ADR      r0,|L5.1148|
0002b4  9000              STR      r0,[sp,#0]
0002b6  4856              LDR      r0,|L5.1040|
0002b8  8900              LDRH     r0,[r0,#8]  ; Sprite_16BPP_565_Mushroom_Super_icon_red
0002ba  9008              STR      r0,[sp,#0x20]
0002bc  eb0070d0          ADD      r0,r0,r0,LSR #31
0002c0  1040              ASRS     r0,r0,#1
0002c2  30df              ADDS     r0,r0,#0xdf
0002c4  b200              SXTH     r0,r0
0002c6  4b61              LDR      r3,|L5.1100|
0002c8  22e3              MOVS     r2,#0xe3
0002ca  4601              MOV      r1,r0
0002cc  9005              STR      r0,[sp,#0x14]
0002ce  484b              LDR      r0,|L5.1020|
0002d0  f7fffffe          BL       eGFX_printf
;;;827    				&OCR_A_Extended__20px__Bold__SingleBitPerPixelGridFit_1BPP,"High", TrebleSliderValue);
;;;828    				
;;;829    				eGFX_printf(&eGFX_BackBuffer,(SLIDER4_REGION_STOP_X/2 - 12),(SLIDER4_REGION_STOP_Y + 30), 
0002d4  a06b              ADR      r0,|L5.1156|
0002d6  9000              STR      r0,[sp,#0]
0002d8  484d              LDR      r0,|L5.1040|
0002da  8900              LDRH     r0,[r0,#8]  ; Sprite_16BPP_565_Mushroom_Super_icon_red
0002dc  9008              STR      r0,[sp,#0x20]
0002de  eb0070d0          ADD      r0,r0,r0,LSR #31
0002e2  1040              ASRS     r0,r0,#1
0002e4  f2001043          ADD      r0,r0,#0x143
0002e8  b200              SXTH     r0,r0
0002ea  4b58              LDR      r3,|L5.1100|
0002ec  22e3              MOVS     r2,#0xe3
0002ee  4601              MOV      r1,r0
0002f0  9007              STR      r0,[sp,#0x1c]
0002f2  4842              LDR      r0,|L5.1020|
0002f4  f7fffffe          BL       eGFX_printf
;;;830    				&OCR_A_Extended__20px__Bold__SingleBitPerPixelGridFit_1BPP,"Vol");
;;;831    				
;;;832    				BassSliderValue =  (float)(SLIDER_REGION_STOP_Y - BassSliderPosition)/(float)(SLIDER_REGION_STOP_Y-SLIDER_REGION_START_Y);
0002f8  4846              LDR      r0,|L5.1044|
0002fa  6800              LDR      r0,[r0,#0]  ; BassSliderPosition
0002fc  f1c000c5          RSB      r0,r0,#0xc5
000300  ee000a10          VMOV     s0,r0
000304  eeb80ac0          VCVT.F32.S32 s0,s0
000308  eddf0a5f          VLDR     s1,|L5.1160|
00030c  ee801a20          VDIV.F32 s2,s0,s1
000310  4852              LDR      r0,|L5.1116|
000312  ed801a00          VSTR     s2,[r0,#0]
;;;833    				MidSliderValue =  (float)(SLIDER2_REGION_STOP_Y - MidSliderPosition)/(float)(SLIDER2_REGION_STOP_Y-SLIDER2_REGION_START_Y);
000316  4842              LDR      r0,|L5.1056|
000318  6800              LDR      r0,[r0,#0]  ; MidSliderPosition
00031a  f1c000c5          RSB      r0,r0,#0xc5
00031e  ee000a10          VMOV     s0,r0
000322  eeb80ac0          VCVT.F32.S32 s0,s0
000326  eddf0a58          VLDR     s1,|L5.1160|
00032a  ee801a20          VDIV.F32 s2,s0,s1
00032e  484e              LDR      r0,|L5.1128|
000330  ed801a00          VSTR     s2,[r0,#0]
;;;834    				TrebleSliderValue =  (float)(SLIDER3_REGION_STOP_Y - TrebleSliderPosition)/(float)(SLIDER3_REGION_STOP_Y-SLIDER3_REGION_START_Y);
000334  483d              LDR      r0,|L5.1068|
000336  6800              LDR      r0,[r0,#0]  ; TrebleSliderPosition
000338  f1c000c5          RSB      r0,r0,#0xc5
00033c  ee000a10          VMOV     s0,r0
000340  eeb80ac0          VCVT.F32.S32 s0,s0
000344  eddf0a50          VLDR     s1,|L5.1160|
000348  ee801a20          VDIV.F32 s2,s0,s1
00034c  4847              LDR      r0,|L5.1132|
00034e  ed801a00          VSTR     s2,[r0,#0]
;;;835    				VolumeSliderValue =  (float)(SLIDER4_REGION_STOP_Y - VolumeSliderPosition)/(float)(SLIDER4_REGION_STOP_Y-SLIDER4_REGION_START_Y);
000352  4839              LDR      r0,|L5.1080|
000354  6800              LDR      r0,[r0,#0]  ; VolumeSliderPosition
000356  f1c000c5          RSB      r0,r0,#0xc5
00035a  ee000a10          VMOV     s0,r0
00035e  eeb80ac0          VCVT.F32.S32 s0,s0
000362  eddf0a49          VLDR     s1,|L5.1160|
000366  ee801a20          VDIV.F32 s2,s0,s1
00036a  4841              LDR      r0,|L5.1136|
00036c  ed801a00          VSTR     s2,[r0,#0]
;;;836    	
;;;837    				eGFX_Box SliderFillBox;
;;;838    
;;;839    				SliderFillBox.P1.Y = BassSliderPosition;  
000370  4828              LDR      r0,|L5.1044|
000372  8800              LDRH     r0,[r0,#0]  ; BassSliderPosition
000374  b200              SXTH     r0,r0
000376  f8ad003e          STRH     r0,[sp,#0x3e]
;;;840    				SliderFillBox.P1.X = (SLIDER_REGION_STOP_X+SLIDER_REGION_START_X)/2 - 5;
00037a  4825              LDR      r0,|L5.1040|
00037c  8900              LDRH     r0,[r0,#8]  ; Sprite_16BPP_565_Mushroom_Super_icon_red
00037e  30aa              ADDS     r0,r0,#0xaa
000380  9008              STR      r0,[sp,#0x20]
000382  eb0070d0          ADD      r0,r0,r0,LSR #31
000386  1040              ASRS     r0,r0,#1
000388  1f40              SUBS     r0,r0,#5
00038a  b200              SXTH     r0,r0
00038c  f8ad003c          STRH     r0,[sp,#0x3c]
;;;841    				SliderFillBox.P2.Y = SLIDER_REGION_STOP_Y + Sprite_16BPP_565_Mushroom_Super_icon_red.SizeY/2;
000390  481f              LDR      r0,|L5.1040|
000392  8940              LDRH     r0,[r0,#0xa]  ; Sprite_16BPP_565_Mushroom_Super_icon_red
000394  9008              STR      r0,[sp,#0x20]
000396  eb0070d0          ADD      r0,r0,r0,LSR #31
00039a  1040              ASRS     r0,r0,#1
00039c  30c5              ADDS     r0,r0,#0xc5
00039e  b201              SXTH     r1,r0
0003a0  a80f              ADD      r0,sp,#0x3c
0003a2  80c1              STRH     r1,[r0,#6]
;;;842    				SliderFillBox.P2.X = (SLIDER_REGION_STOP_X+SLIDER_REGION_START_X)/2 + 5;
0003a4  481a              LDR      r0,|L5.1040|
0003a6  8900              LDRH     r0,[r0,#8]  ; Sprite_16BPP_565_Mushroom_Super_icon_red
0003a8  30aa              ADDS     r0,r0,#0xaa
0003aa  9008              STR      r0,[sp,#0x20]
0003ac  eb0070d0          ADD      r0,r0,r0,LSR #31
0003b0  1040              ASRS     r0,r0,#1
0003b2  1d40              ADDS     r0,r0,#5
0003b4  b200              SXTH     r0,r0
0003b6  f8ad0040          STRH     r0,[sp,#0x40]
;;;843    				
;;;844    				eGFX_DrawFilledBox(&eGFX_BackBuffer,&SliderFillBox,eGFX_RGB888_TO_RGB565(0,128,0));
0003ba  f44f6280          MOV      r2,#0x400
0003be  a90f              ADD      r1,sp,#0x3c
0003c0  480e              LDR      r0,|L5.1020|
0003c2  f7fffffe          BL       eGFX_DrawFilledBox
;;;845    								
;;;846    				eGFX_Blit(&eGFX_BackBuffer,
0003c6  4812              LDR      r0,|L5.1040|
0003c8  8940              LDRH     r0,[r0,#0xa]  ; Sprite_16BPP_565_Mushroom_Super_icon_red
0003ca  9008              STR      r0,[sp,#0x20]
0003cc  eb0070d0          ADD      r0,r0,r0,LSR #31
0003d0  4910              LDR      r1,|L5.1044|
0003d2  8809              LDRH     r1,[r1,#0]  ; BassSliderPosition
0003d4  eba10060          SUB      r0,r1,r0,ASR #1
0003d8  1c40              ADDS     r0,r0,#1
0003da  b200              SXTH     r0,r0
0003dc  4b0c              LDR      r3,|L5.1040|
0003de  4602              MOV      r2,r0
0003e0  2155              MOVS     r1,#0x55
0003e2  9007              STR      r0,[sp,#0x1c]
0003e4  4805              LDR      r0,|L5.1020|
0003e6  f7fffffe          BL       eGFX_Blit
;;;847    								SLIDER_REGION_START_X,
;;;848    								BassSliderPosition - Sprite_16BPP_565_Mushroom_Super_icon_red.SizeY/2 + 1,																			 //y coordinate 
;;;849    								&Sprite_16BPP_565_Mushroom_Super_icon_red);																								
;;;850    			
;;;851    				eGFX_DrawVline(&eGFX_BackBuffer,SLIDER_REGION_STOP_Y+Sprite_16BPP_565_Mushroom_Super_icon_red.SizeY/2,SLIDER_REGION_START_Y,SLIDER_REGION_START_X-5,eGFX_RGB888_TO_RGB565(255,255,255));
0003ea  4817              LDR      r0,|L5.1096|
0003ec  9000              STR      r0,[sp,#0]
0003ee  4808              LDR      r0,|L5.1040|
0003f0  8940              LDRH     r0,[r0,#0xa]  ; Sprite_16BPP_565_Mushroom_Super_icon_red
0003f2  9008              STR      r0,[sp,#0x20]
0003f4  eb0070d0          ADD      r0,r0,r0,LSR #31
0003f8  1040              ASRS     r0,r0,#1
0003fa  e047              B        |L5.1164|
                  |L5.1020|
                          DCD      eGFX_BackBuffer
                  |L5.1024|
                          DCD      x
                  |L5.1028|
                          DCD      y
                  |L5.1032|
                          DCD      touch_event
                  |L5.1036|
                          DCD      touch_handle
                  |L5.1040|
                          DCD      Sprite_16BPP_565_Mushroom_Super_icon_red
                  |L5.1044|
                          DCD      BassSliderPosition
                  |L5.1048|
                          DCD      ||x2||
                  |L5.1052|
                          DCD      ||y2||
                  |L5.1056|
                          DCD      MidSliderPosition
                  |L5.1060|
                          DCD      ||x3||
                  |L5.1064|
                          DCD      ||y3||
                  |L5.1068|
                          DCD      TrebleSliderPosition
                  |L5.1072|
                          DCD      ||x4||
                  |L5.1076|
                          DCD      ||y4||
                  |L5.1080|
                          DCD      VolumeSliderPosition
                  |L5.1084|
00043c  45717561          DCB      "Equalizer",0
000440  6c697a65
000444  7200    
000446  00                DCB      0
000447  00                DCB      0
                  |L5.1096|
                          DCD      0x0001ffff
                  |L5.1100|
                          DCD      OCR_A_Extended__20px__Bold__SingleBitPerPixelGridFit_1BPP
                  |L5.1104|
                          DCD      Sprite_16BPP_565_home_icon
                  |L5.1108|
                          DCD      Sprite_16BPP_565_piramid_silver
                  |L5.1112|
                          DCD      Sprite_16BPP_565_whirl_silver
                  |L5.1116|
                          DCD      BassSliderValue
                  |L5.1120|
000460  252e3266          DCB      "%.2f",0
000464  00      
000465  00                DCB      0
000466  00                DCB      0
000467  00                DCB      0
                  |L5.1128|
                          DCD      MidSliderValue
                  |L5.1132|
                          DCD      TrebleSliderValue
                  |L5.1136|
                          DCD      VolumeSliderValue
                  |L5.1140|
000474  4c6f7700          DCB      "Low",0
                  |L5.1144|
000478  4d696400          DCB      "Mid",0
                  |L5.1148|
00047c  48696768          DCB      "High",0
000480  00      
000481  00                DCB      0
000482  00                DCB      0
000483  00                DCB      0
                  |L5.1156|
000484  566f6c00          DCB      "Vol",0
                  |L5.1160|
000488  43130000          DCFS     0x43130000 ; 147
                  |L5.1164|
00048c  30c5              ADDS     r0,r0,#0xc5
00048e  b200              SXTH     r0,r0
000490  2350              MOVS     r3,#0x50
000492  2232              MOVS     r2,#0x32
000494  4601              MOV      r1,r0
000496  9007              STR      r0,[sp,#0x1c]
000498  48f7              LDR      r0,|L5.2168|
00049a  f7fffffe          BL       eGFX_DrawVline
;;;852    				eGFX_DrawVline(&eGFX_BackBuffer,SLIDER_REGION_STOP_Y+Sprite_16BPP_565_Mushroom_Super_icon_red.SizeY/2+1,SLIDER_REGION_START_Y,SLIDER_REGION_START_X-5,eGFX_RGB888_TO_RGB565(255,255,255));
00049e  48f7              LDR      r0,|L5.2172|
0004a0  9000              STR      r0,[sp,#0]
0004a2  48f7              LDR      r0,|L5.2176|
0004a4  8940              LDRH     r0,[r0,#0xa]  ; Sprite_16BPP_565_Mushroom_Super_icon_red
0004a6  9008              STR      r0,[sp,#0x20]
0004a8  eb0070d0          ADD      r0,r0,r0,LSR #31
0004ac  1040              ASRS     r0,r0,#1
0004ae  30c6              ADDS     r0,r0,#0xc6
0004b0  b200              SXTH     r0,r0
0004b2  2350              MOVS     r3,#0x50
0004b4  2232              MOVS     r2,#0x32
0004b6  4601              MOV      r1,r0
0004b8  9007              STR      r0,[sp,#0x1c]
0004ba  48ef              LDR      r0,|L5.2168|
0004bc  f7fffffe          BL       eGFX_DrawVline
;;;853    				
;;;854    				eGFX_DrawVline(&eGFX_BackBuffer,SLIDER_REGION_STOP_Y+Sprite_16BPP_565_Mushroom_Super_icon_red.SizeY/2,SLIDER_REGION_START_Y,SLIDER_REGION_STOP_X+5,eGFX_RGB888_TO_RGB565(255,255,255));
0004c0  48ee              LDR      r0,|L5.2172|
0004c2  9000              STR      r0,[sp,#0]
0004c4  48ee              LDR      r0,|L5.2176|
0004c6  8940              LDRH     r0,[r0,#0xa]  ; Sprite_16BPP_565_Mushroom_Super_icon_red
0004c8  9008              STR      r0,[sp,#0x20]
0004ca  eb0070d0          ADD      r0,r0,r0,LSR #31
0004ce  1040              ASRS     r0,r0,#1
0004d0  30c5              ADDS     r0,r0,#0xc5
0004d2  b200              SXTH     r0,r0
0004d4  9006              STR      r0,[sp,#0x18]
0004d6  48ea              LDR      r0,|L5.2176|
0004d8  8900              LDRH     r0,[r0,#8]  ; Sprite_16BPP_565_Mushroom_Super_icon_red
0004da  305a              ADDS     r0,r0,#0x5a
0004dc  b200              SXTH     r0,r0
0004de  4603              MOV      r3,r0
0004e0  2232              MOVS     r2,#0x32
0004e2  9007              STR      r0,[sp,#0x1c]
0004e4  48e4              LDR      r0,|L5.2168|
0004e6  9906              LDR      r1,[sp,#0x18]
0004e8  f7fffffe          BL       eGFX_DrawVline
;;;855    				eGFX_DrawVline(&eGFX_BackBuffer,SLIDER_REGION_STOP_Y+Sprite_16BPP_565_Mushroom_Super_icon_red.SizeY/2-1,SLIDER_REGION_START_Y,SLIDER_REGION_STOP_X+5,eGFX_RGB888_TO_RGB565(255,255,255));
0004ec  48e3              LDR      r0,|L5.2172|
0004ee  9000              STR      r0,[sp,#0]
0004f0  48e3              LDR      r0,|L5.2176|
0004f2  8940              LDRH     r0,[r0,#0xa]  ; Sprite_16BPP_565_Mushroom_Super_icon_red
0004f4  9008              STR      r0,[sp,#0x20]
0004f6  eb0070d0          ADD      r0,r0,r0,LSR #31
0004fa  1040              ASRS     r0,r0,#1
0004fc  30c4              ADDS     r0,r0,#0xc4
0004fe  b200              SXTH     r0,r0
000500  9006              STR      r0,[sp,#0x18]
000502  48df              LDR      r0,|L5.2176|
000504  8900              LDRH     r0,[r0,#8]  ; Sprite_16BPP_565_Mushroom_Super_icon_red
000506  305a              ADDS     r0,r0,#0x5a
000508  b200              SXTH     r0,r0
00050a  4603              MOV      r3,r0
00050c  2232              MOVS     r2,#0x32
00050e  9007              STR      r0,[sp,#0x1c]
000510  48d9              LDR      r0,|L5.2168|
000512  9906              LDR      r1,[sp,#0x18]
000514  f7fffffe          BL       eGFX_DrawVline
;;;856    				
;;;857    				// Band 2 - Yellow
;;;858    				
;;;859    				eGFX_Box SliderFillBox2;
;;;860    
;;;861    				SliderFillBox2.P1.Y = MidSliderPosition;   
000518  48da              LDR      r0,|L5.2180|
00051a  8800              LDRH     r0,[r0,#0]  ; MidSliderPosition
00051c  b200              SXTH     r0,r0
00051e  f8ad0036          STRH     r0,[sp,#0x36]
;;;862    				SliderFillBox2.P1.X = (SLIDER2_REGION_STOP_X+SLIDER2_REGION_START_X)/2 - 5;
000522  48d7              LDR      r0,|L5.2176|
000524  8900              LDRH     r0,[r0,#8]  ; Sprite_16BPP_565_Mushroom_Super_icon_red
000526  f50070a0          ADD      r0,r0,#0x140
00052a  9008              STR      r0,[sp,#0x20]
00052c  eb0070d0          ADD      r0,r0,r0,LSR #31
000530  1040              ASRS     r0,r0,#1
000532  1f40              SUBS     r0,r0,#5
000534  b200              SXTH     r0,r0
000536  f8ad0034          STRH     r0,[sp,#0x34]
;;;863    				SliderFillBox2.P2.Y = SLIDER2_REGION_STOP_Y + Sprite_16BPP_565_Mushroom_Super_icon_red.SizeY/2;
00053a  48d1              LDR      r0,|L5.2176|
00053c  8940              LDRH     r0,[r0,#0xa]  ; Sprite_16BPP_565_Mushroom_Super_icon_red
00053e  9008              STR      r0,[sp,#0x20]
000540  eb0070d0          ADD      r0,r0,r0,LSR #31
000544  1040              ASRS     r0,r0,#1
000546  30c5              ADDS     r0,r0,#0xc5
000548  b201              SXTH     r1,r0
00054a  f8ad103a          STRH     r1,[sp,#0x3a]
;;;864    				SliderFillBox2.P2.X = (SLIDER2_REGION_STOP_X+SLIDER2_REGION_START_X)/2 + 5;
00054e  48cc              LDR      r0,|L5.2176|
000550  8900              LDRH     r0,[r0,#8]  ; Sprite_16BPP_565_Mushroom_Super_icon_red
000552  f50070a0          ADD      r0,r0,#0x140
000556  9008              STR      r0,[sp,#0x20]
000558  eb0070d0          ADD      r0,r0,r0,LSR #31
00055c  1040              ASRS     r0,r0,#1
00055e  1d40              ADDS     r0,r0,#5
000560  b200              SXTH     r0,r0
000562  f8ad0038          STRH     r0,[sp,#0x38]
;;;865    				
;;;866    				eGFX_DrawFilledBox(&eGFX_BackBuffer,&SliderFillBox2,eGFX_RGB888_TO_RGB565(255,255,0));
000566  4ac5              LDR      r2,|L5.2172|
000568  3a1f              SUBS     r2,r2,#0x1f
00056a  a90d              ADD      r1,sp,#0x34
00056c  48c2              LDR      r0,|L5.2168|
00056e  f7fffffe          BL       eGFX_DrawFilledBox
;;;867    								
;;;868    				eGFX_Blit(&eGFX_BackBuffer,
000572  48c3              LDR      r0,|L5.2176|
000574  8940              LDRH     r0,[r0,#0xa]  ; Sprite_16BPP_565_Mushroom_Super_icon_red
000576  9008              STR      r0,[sp,#0x20]
000578  eb0070d0          ADD      r0,r0,r0,LSR #31
00057c  49c1              LDR      r1,|L5.2180|
00057e  8809              LDRH     r1,[r1,#0]  ; MidSliderPosition
000580  eba10060          SUB      r0,r1,r0,ASR #1
000584  1c40              ADDS     r0,r0,#1
000586  b200              SXTH     r0,r0
000588  4bbd              LDR      r3,|L5.2176|
00058a  4602              MOV      r2,r0
00058c  21a0              MOVS     r1,#0xa0
00058e  9007              STR      r0,[sp,#0x1c]
000590  48b9              LDR      r0,|L5.2168|
000592  f7fffffe          BL       eGFX_Blit
;;;869    								SLIDER2_REGION_START_X,
;;;870    								MidSliderPosition - Sprite_16BPP_565_Mushroom_Super_icon_red.SizeY/2 + 1,																			 //y coordinate of where to put the monkey head
;;;871    								&Sprite_16BPP_565_Mushroom_Super_icon_red);																								
;;;872    			
;;;873    				eGFX_DrawVline(&eGFX_BackBuffer,SLIDER2_REGION_STOP_Y+Sprite_16BPP_565_Mushroom_Super_icon_red.SizeY/2,SLIDER2_REGION_START_Y,SLIDER2_REGION_START_X-5,eGFX_RGB888_TO_RGB565(255,255,255));
000596  48b9              LDR      r0,|L5.2172|
000598  9000              STR      r0,[sp,#0]
00059a  48b9              LDR      r0,|L5.2176|
00059c  8940              LDRH     r0,[r0,#0xa]  ; Sprite_16BPP_565_Mushroom_Super_icon_red
00059e  9008              STR      r0,[sp,#0x20]
0005a0  eb0070d0          ADD      r0,r0,r0,LSR #31
0005a4  1040              ASRS     r0,r0,#1
0005a6  30c5              ADDS     r0,r0,#0xc5
0005a8  b200              SXTH     r0,r0
0005aa  239b              MOVS     r3,#0x9b
0005ac  2232              MOVS     r2,#0x32
0005ae  4601              MOV      r1,r0
0005b0  9007              STR      r0,[sp,#0x1c]
0005b2  48b1              LDR      r0,|L5.2168|
0005b4  f7fffffe          BL       eGFX_DrawVline
;;;874    				eGFX_DrawVline(&eGFX_BackBuffer,SLIDER2_REGION_STOP_Y+Sprite_16BPP_565_Mushroom_Super_icon_red.SizeY/2+1,SLIDER2_REGION_START_Y,SLIDER2_REGION_START_X-5,eGFX_RGB888_TO_RGB565(255,255,255));
0005b8  48b0              LDR      r0,|L5.2172|
0005ba  9000              STR      r0,[sp,#0]
0005bc  48b0              LDR      r0,|L5.2176|
0005be  8940              LDRH     r0,[r0,#0xa]  ; Sprite_16BPP_565_Mushroom_Super_icon_red
0005c0  9008              STR      r0,[sp,#0x20]
0005c2  eb0070d0          ADD      r0,r0,r0,LSR #31
0005c6  1040              ASRS     r0,r0,#1
0005c8  30c6              ADDS     r0,r0,#0xc6
0005ca  b200              SXTH     r0,r0
0005cc  239b              MOVS     r3,#0x9b
0005ce  2232              MOVS     r2,#0x32
0005d0  4601              MOV      r1,r0
0005d2  9007              STR      r0,[sp,#0x1c]
0005d4  48a8              LDR      r0,|L5.2168|
0005d6  f7fffffe          BL       eGFX_DrawVline
;;;875    				
;;;876    				eGFX_DrawVline(&eGFX_BackBuffer,SLIDER2_REGION_STOP_Y+Sprite_16BPP_565_Mushroom_Super_icon_red.SizeY/2,SLIDER2_REGION_START_Y,SLIDER2_REGION_STOP_X+5,eGFX_RGB888_TO_RGB565(255,255,255));
0005da  48a8              LDR      r0,|L5.2172|
0005dc  9000              STR      r0,[sp,#0]
0005de  48a8              LDR      r0,|L5.2176|
0005e0  8940              LDRH     r0,[r0,#0xa]  ; Sprite_16BPP_565_Mushroom_Super_icon_red
0005e2  9008              STR      r0,[sp,#0x20]
0005e4  eb0070d0          ADD      r0,r0,r0,LSR #31
0005e8  1040              ASRS     r0,r0,#1
0005ea  30c5              ADDS     r0,r0,#0xc5
0005ec  b200              SXTH     r0,r0
0005ee  9006              STR      r0,[sp,#0x18]
0005f0  48a3              LDR      r0,|L5.2176|
0005f2  8900              LDRH     r0,[r0,#8]  ; Sprite_16BPP_565_Mushroom_Super_icon_red
0005f4  30a5              ADDS     r0,r0,#0xa5
0005f6  b200              SXTH     r0,r0
0005f8  4603              MOV      r3,r0
0005fa  2232              MOVS     r2,#0x32
0005fc  9007              STR      r0,[sp,#0x1c]
0005fe  489e              LDR      r0,|L5.2168|
000600  9906              LDR      r1,[sp,#0x18]
000602  f7fffffe          BL       eGFX_DrawVline
;;;877    				eGFX_DrawVline(&eGFX_BackBuffer,SLIDER2_REGION_STOP_Y+Sprite_16BPP_565_Mushroom_Super_icon_red.SizeY/2-1,SLIDER2_REGION_START_Y,SLIDER2_REGION_STOP_X+5,eGFX_RGB888_TO_RGB565(255,255,255));
000606  489d              LDR      r0,|L5.2172|
000608  9000              STR      r0,[sp,#0]
00060a  489d              LDR      r0,|L5.2176|
00060c  8940              LDRH     r0,[r0,#0xa]  ; Sprite_16BPP_565_Mushroom_Super_icon_red
00060e  9008              STR      r0,[sp,#0x20]
000610  eb0070d0          ADD      r0,r0,r0,LSR #31
000614  1040              ASRS     r0,r0,#1
000616  30c4              ADDS     r0,r0,#0xc4
000618  b200              SXTH     r0,r0
00061a  9006              STR      r0,[sp,#0x18]
00061c  4898              LDR      r0,|L5.2176|
00061e  8900              LDRH     r0,[r0,#8]  ; Sprite_16BPP_565_Mushroom_Super_icon_red
000620  30a5              ADDS     r0,r0,#0xa5
000622  b200              SXTH     r0,r0
000624  4603              MOV      r3,r0
000626  2232              MOVS     r2,#0x32
000628  9007              STR      r0,[sp,#0x1c]
00062a  4893              LDR      r0,|L5.2168|
00062c  9906              LDR      r1,[sp,#0x18]
00062e  f7fffffe          BL       eGFX_DrawVline
;;;878    				
;;;879    				// Band 3 - Red				
;;;880    				eGFX_Box SliderFillBox3;
;;;881    
;;;882    				SliderFillBox3.P1.Y = TrebleSliderPosition;   
000632  4895              LDR      r0,|L5.2184|
000634  8800              LDRH     r0,[r0,#0]  ; TrebleSliderPosition
000636  b200              SXTH     r0,r0
000638  f8ad002e          STRH     r0,[sp,#0x2e]
;;;883    				SliderFillBox3.P1.X = (SLIDER3_REGION_STOP_X+SLIDER3_REGION_START_X)/2 - 5;
00063c  4890              LDR      r0,|L5.2176|
00063e  8900              LDRH     r0,[r0,#8]  ; Sprite_16BPP_565_Mushroom_Super_icon_red
000640  f50070eb          ADD      r0,r0,#0x1d6
000644  9008              STR      r0,[sp,#0x20]
000646  eb0070d0          ADD      r0,r0,r0,LSR #31
00064a  1040              ASRS     r0,r0,#1
00064c  1f40              SUBS     r0,r0,#5
00064e  b200              SXTH     r0,r0
000650  f8ad002c          STRH     r0,[sp,#0x2c]
;;;884    				SliderFillBox3.P2.Y = SLIDER3_REGION_STOP_Y + Sprite_16BPP_565_Mushroom_Super_icon_red.SizeY/2;
000654  488a              LDR      r0,|L5.2176|
000656  8940              LDRH     r0,[r0,#0xa]  ; Sprite_16BPP_565_Mushroom_Super_icon_red
000658  9008              STR      r0,[sp,#0x20]
00065a  eb0070d0          ADD      r0,r0,r0,LSR #31
00065e  1040              ASRS     r0,r0,#1
000660  30c5              ADDS     r0,r0,#0xc5
000662  b201              SXTH     r1,r0
000664  f8ad1032          STRH     r1,[sp,#0x32]
;;;885    				SliderFillBox3.P2.X = (SLIDER3_REGION_STOP_X+SLIDER3_REGION_START_X)/2 + 5;
000668  4885              LDR      r0,|L5.2176|
00066a  8900              LDRH     r0,[r0,#8]  ; Sprite_16BPP_565_Mushroom_Super_icon_red
00066c  f50070eb          ADD      r0,r0,#0x1d6
000670  9008              STR      r0,[sp,#0x20]
000672  eb0070d0          ADD      r0,r0,r0,LSR #31
000676  1040              ASRS     r0,r0,#1
000678  1d40              ADDS     r0,r0,#5
00067a  b200              SXTH     r0,r0
00067c  f8ad0030          STRH     r0,[sp,#0x30]
;;;886    				
;;;887    				eGFX_DrawFilledBox(&eGFX_BackBuffer,&SliderFillBox3,eGFX_RGB888_TO_RGB565(255,0,0));
000680  f44f32fc          MOV      r2,#0x1f800
000684  a90b              ADD      r1,sp,#0x2c
000686  487c              LDR      r0,|L5.2168|
000688  f7fffffe          BL       eGFX_DrawFilledBox
;;;888    								
;;;889    				eGFX_Blit(&eGFX_BackBuffer,
00068c  487c              LDR      r0,|L5.2176|
00068e  8940              LDRH     r0,[r0,#0xa]  ; Sprite_16BPP_565_Mushroom_Super_icon_red
000690  9008              STR      r0,[sp,#0x20]
000692  eb0070d0          ADD      r0,r0,r0,LSR #31
000696  497c              LDR      r1,|L5.2184|
000698  8809              LDRH     r1,[r1,#0]  ; TrebleSliderPosition
00069a  eba10060          SUB      r0,r1,r0,ASR #1
00069e  1c40              ADDS     r0,r0,#1
0006a0  b200              SXTH     r0,r0
0006a2  4b77              LDR      r3,|L5.2176|
0006a4  4602              MOV      r2,r0
0006a6  21eb              MOVS     r1,#0xeb
0006a8  9007              STR      r0,[sp,#0x1c]
0006aa  4873              LDR      r0,|L5.2168|
0006ac  f7fffffe          BL       eGFX_Blit
;;;890    								SLIDER3_REGION_START_X,
;;;891    								TrebleSliderPosition - Sprite_16BPP_565_Mushroom_Super_icon_red.SizeY/2 + 1,																			 //y coordinate of where to put the monkey head
;;;892    								&Sprite_16BPP_565_Mushroom_Super_icon_red);																								
;;;893    			
;;;894    				eGFX_DrawVline(&eGFX_BackBuffer,SLIDER3_REGION_STOP_Y+Sprite_16BPP_565_Mushroom_Super_icon_red.SizeY/2,SLIDER3_REGION_START_Y,SLIDER3_REGION_START_X-5,eGFX_RGB888_TO_RGB565(255,255,255));
0006b0  4872              LDR      r0,|L5.2172|
0006b2  9000              STR      r0,[sp,#0]
0006b4  4872              LDR      r0,|L5.2176|
0006b6  8940              LDRH     r0,[r0,#0xa]  ; Sprite_16BPP_565_Mushroom_Super_icon_red
0006b8  9008              STR      r0,[sp,#0x20]
0006ba  eb0070d0          ADD      r0,r0,r0,LSR #31
0006be  1040              ASRS     r0,r0,#1
0006c0  30c5              ADDS     r0,r0,#0xc5
0006c2  b200              SXTH     r0,r0
0006c4  23e6              MOVS     r3,#0xe6
0006c6  2232              MOVS     r2,#0x32
0006c8  4601              MOV      r1,r0
0006ca  9007              STR      r0,[sp,#0x1c]
0006cc  486a              LDR      r0,|L5.2168|
0006ce  f7fffffe          BL       eGFX_DrawVline
;;;895    				eGFX_DrawVline(&eGFX_BackBuffer,SLIDER3_REGION_STOP_Y+Sprite_16BPP_565_Mushroom_Super_icon_red.SizeY/2+1,SLIDER3_REGION_START_Y,SLIDER3_REGION_START_X-5,eGFX_RGB888_TO_RGB565(255,255,255));
0006d2  486a              LDR      r0,|L5.2172|
0006d4  9000              STR      r0,[sp,#0]
0006d6  486a              LDR      r0,|L5.2176|
0006d8  8940              LDRH     r0,[r0,#0xa]  ; Sprite_16BPP_565_Mushroom_Super_icon_red
0006da  9008              STR      r0,[sp,#0x20]
0006dc  eb0070d0          ADD      r0,r0,r0,LSR #31
0006e0  1040              ASRS     r0,r0,#1
0006e2  30c6              ADDS     r0,r0,#0xc6
0006e4  b200              SXTH     r0,r0
0006e6  23e6              MOVS     r3,#0xe6
0006e8  2232              MOVS     r2,#0x32
0006ea  4601              MOV      r1,r0
0006ec  9007              STR      r0,[sp,#0x1c]
0006ee  4862              LDR      r0,|L5.2168|
0006f0  f7fffffe          BL       eGFX_DrawVline
;;;896    				
;;;897    				eGFX_DrawVline(&eGFX_BackBuffer,SLIDER3_REGION_STOP_Y+Sprite_16BPP_565_Mushroom_Super_icon_red.SizeY/2,SLIDER3_REGION_START_Y,SLIDER3_REGION_STOP_X+5,eGFX_RGB888_TO_RGB565(255,255,255));
0006f4  4861              LDR      r0,|L5.2172|
0006f6  9000              STR      r0,[sp,#0]
0006f8  4861              LDR      r0,|L5.2176|
0006fa  8940              LDRH     r0,[r0,#0xa]  ; Sprite_16BPP_565_Mushroom_Super_icon_red
0006fc  9008              STR      r0,[sp,#0x20]
0006fe  eb0070d0          ADD      r0,r0,r0,LSR #31
000702  1040              ASRS     r0,r0,#1
000704  30c5              ADDS     r0,r0,#0xc5
000706  b200              SXTH     r0,r0
000708  9006              STR      r0,[sp,#0x18]
00070a  485d              LDR      r0,|L5.2176|
00070c  8900              LDRH     r0,[r0,#8]  ; Sprite_16BPP_565_Mushroom_Super_icon_red
00070e  30f0              ADDS     r0,r0,#0xf0
000710  b200              SXTH     r0,r0
000712  4603              MOV      r3,r0
000714  2232              MOVS     r2,#0x32
000716  9007              STR      r0,[sp,#0x1c]
000718  4857              LDR      r0,|L5.2168|
00071a  9906              LDR      r1,[sp,#0x18]
00071c  f7fffffe          BL       eGFX_DrawVline
;;;898    				eGFX_DrawVline(&eGFX_BackBuffer,SLIDER3_REGION_STOP_Y+Sprite_16BPP_565_Mushroom_Super_icon_red.SizeY/2-1,SLIDER3_REGION_START_Y,SLIDER3_REGION_STOP_X+5,eGFX_RGB888_TO_RGB565(255,255,255));
000720  4856              LDR      r0,|L5.2172|
000722  9000              STR      r0,[sp,#0]
000724  4856              LDR      r0,|L5.2176|
000726  8940              LDRH     r0,[r0,#0xa]  ; Sprite_16BPP_565_Mushroom_Super_icon_red
000728  9008              STR      r0,[sp,#0x20]
00072a  eb0070d0          ADD      r0,r0,r0,LSR #31
00072e  1040              ASRS     r0,r0,#1
000730  30c4              ADDS     r0,r0,#0xc4
000732  b200              SXTH     r0,r0
000734  9006              STR      r0,[sp,#0x18]
000736  4852              LDR      r0,|L5.2176|
000738  8900              LDRH     r0,[r0,#8]  ; Sprite_16BPP_565_Mushroom_Super_icon_red
00073a  30f0              ADDS     r0,r0,#0xf0
00073c  b200              SXTH     r0,r0
00073e  4603              MOV      r3,r0
000740  2232              MOVS     r2,#0x32
000742  9007              STR      r0,[sp,#0x1c]
000744  484c              LDR      r0,|L5.2168|
000746  9906              LDR      r1,[sp,#0x18]
000748  f7fffffe          BL       eGFX_DrawVline
;;;899    			  
;;;900    				// Band 4 - Volume - Blue
;;;901    				
;;;902    				eGFX_Box SliderFillBox4;
;;;903    
;;;904    				SliderFillBox4.P1.Y = VolumeSliderPosition;   
00074c  484f              LDR      r0,|L5.2188|
00074e  8800              LDRH     r0,[r0,#0]  ; VolumeSliderPosition
000750  b200              SXTH     r0,r0
000752  f8ad0026          STRH     r0,[sp,#0x26]
;;;905    				SliderFillBox4.P1.X = (SLIDER4_REGION_STOP_X+SLIDER4_REGION_START_X)/2 - 5;
000756  484a              LDR      r0,|L5.2176|
000758  8900              LDRH     r0,[r0,#8]  ; Sprite_16BPP_565_Mushroom_Super_icon_red
00075a  f200209e          ADD      r0,r0,#0x29e
00075e  9008              STR      r0,[sp,#0x20]
000760  eb0070d0          ADD      r0,r0,r0,LSR #31
000764  1040              ASRS     r0,r0,#1
000766  1f40              SUBS     r0,r0,#5
000768  b200              SXTH     r0,r0
00076a  f8ad0024          STRH     r0,[sp,#0x24]
;;;906    				SliderFillBox4.P2.Y = SLIDER4_REGION_STOP_Y + Sprite_16BPP_565_Mushroom_Super_icon_red.SizeY/2;
00076e  4844              LDR      r0,|L5.2176|
000770  8940              LDRH     r0,[r0,#0xa]  ; Sprite_16BPP_565_Mushroom_Super_icon_red
000772  9008              STR      r0,[sp,#0x20]
000774  eb0070d0          ADD      r0,r0,r0,LSR #31
000778  1040              ASRS     r0,r0,#1
00077a  30c5              ADDS     r0,r0,#0xc5
00077c  b201              SXTH     r1,r0
00077e  f8ad102a          STRH     r1,[sp,#0x2a]
;;;907    				SliderFillBox4.P2.X = (SLIDER4_REGION_STOP_X+SLIDER4_REGION_START_X)/2 + 5;
000782  483f              LDR      r0,|L5.2176|
000784  8900              LDRH     r0,[r0,#8]  ; Sprite_16BPP_565_Mushroom_Super_icon_red
000786  f200209e          ADD      r0,r0,#0x29e
00078a  9008              STR      r0,[sp,#0x20]
00078c  eb0070d0          ADD      r0,r0,r0,LSR #31
000790  1040              ASRS     r0,r0,#1
000792  1d40              ADDS     r0,r0,#5
000794  b200              SXTH     r0,r0
000796  f8ad0028          STRH     r0,[sp,#0x28]
;;;908    				
;;;909    				eGFX_DrawFilledBox(&eGFX_BackBuffer,&SliderFillBox4,eGFX_RGB888_TO_RGB565(0,0,255));
00079a  221f              MOVS     r2,#0x1f
00079c  a909              ADD      r1,sp,#0x24
00079e  4836              LDR      r0,|L5.2168|
0007a0  f7fffffe          BL       eGFX_DrawFilledBox
;;;910    								
;;;911    				eGFX_Blit(&eGFX_BackBuffer,
0007a4  4836              LDR      r0,|L5.2176|
0007a6  8940              LDRH     r0,[r0,#0xa]  ; Sprite_16BPP_565_Mushroom_Super_icon_red
0007a8  9008              STR      r0,[sp,#0x20]
0007aa  eb0070d0          ADD      r0,r0,r0,LSR #31
0007ae  4937              LDR      r1,|L5.2188|
0007b0  8809              LDRH     r1,[r1,#0]  ; VolumeSliderPosition
0007b2  eba10060          SUB      r0,r1,r0,ASR #1
0007b6  1c40              ADDS     r0,r0,#1
0007b8  b200              SXTH     r0,r0
0007ba  4b31              LDR      r3,|L5.2176|
0007bc  4602              MOV      r2,r0
0007be  f240114f          MOV      r1,#0x14f
0007c2  9007              STR      r0,[sp,#0x1c]
0007c4  482c              LDR      r0,|L5.2168|
0007c6  f7fffffe          BL       eGFX_Blit
;;;912    								SLIDER4_REGION_START_X,
;;;913    								VolumeSliderPosition - Sprite_16BPP_565_Mushroom_Super_icon_red.SizeY/2 + 1,																			 //y coordinate of where to put the monkey head
;;;914    								&Sprite_16BPP_565_Mushroom_Super_icon_red);																								
;;;915    			
;;;916    			
;;;917    				eGFX_DrawVline(&eGFX_BackBuffer,SLIDER4_REGION_STOP_Y+Sprite_16BPP_565_Mushroom_Super_icon_red.SizeY/2,SLIDER4_REGION_START_Y,SLIDER4_REGION_START_X-5,eGFX_RGB888_TO_RGB565(255,255,255));
0007ca  482c              LDR      r0,|L5.2172|
0007cc  9000              STR      r0,[sp,#0]
0007ce  482c              LDR      r0,|L5.2176|
0007d0  8940              LDRH     r0,[r0,#0xa]  ; Sprite_16BPP_565_Mushroom_Super_icon_red
0007d2  9008              STR      r0,[sp,#0x20]
0007d4  eb0070d0          ADD      r0,r0,r0,LSR #31
0007d8  1040              ASRS     r0,r0,#1
0007da  30c5              ADDS     r0,r0,#0xc5
0007dc  b200              SXTH     r0,r0
0007de  f44f73a5          MOV      r3,#0x14a
0007e2  2232              MOVS     r2,#0x32
0007e4  4601              MOV      r1,r0
0007e6  9007              STR      r0,[sp,#0x1c]
0007e8  4823              LDR      r0,|L5.2168|
0007ea  f7fffffe          BL       eGFX_DrawVline
;;;918    				eGFX_DrawVline(&eGFX_BackBuffer,SLIDER4_REGION_STOP_Y+Sprite_16BPP_565_Mushroom_Super_icon_red.SizeY/2+1,SLIDER4_REGION_START_Y,SLIDER4_REGION_START_X-5,eGFX_RGB888_TO_RGB565(255,255,255));
0007ee  4823              LDR      r0,|L5.2172|
0007f0  9000              STR      r0,[sp,#0]
0007f2  4823              LDR      r0,|L5.2176|
0007f4  8940              LDRH     r0,[r0,#0xa]  ; Sprite_16BPP_565_Mushroom_Super_icon_red
0007f6  9008              STR      r0,[sp,#0x20]
0007f8  eb0070d0          ADD      r0,r0,r0,LSR #31
0007fc  1040              ASRS     r0,r0,#1
0007fe  30c6              ADDS     r0,r0,#0xc6
000800  b200              SXTH     r0,r0
000802  f44f73a5          MOV      r3,#0x14a
000806  2232              MOVS     r2,#0x32
000808  4601              MOV      r1,r0
00080a  9007              STR      r0,[sp,#0x1c]
00080c  481a              LDR      r0,|L5.2168|
00080e  f7fffffe          BL       eGFX_DrawVline
;;;919    				
;;;920    				eGFX_DrawVline(&eGFX_BackBuffer,SLIDER4_REGION_STOP_Y+Sprite_16BPP_565_Mushroom_Super_icon_red.SizeY/2,SLIDER4_REGION_START_Y,SLIDER4_REGION_STOP_X+5,eGFX_RGB888_TO_RGB565(255,255,255));
000812  481a              LDR      r0,|L5.2172|
000814  9000              STR      r0,[sp,#0]
000816  481a              LDR      r0,|L5.2176|
000818  8940              LDRH     r0,[r0,#0xa]  ; Sprite_16BPP_565_Mushroom_Super_icon_red
00081a  9008              STR      r0,[sp,#0x20]
00081c  eb0070d0          ADD      r0,r0,r0,LSR #31
000820  1040              ASRS     r0,r0,#1
000822  30c5              ADDS     r0,r0,#0xc5
000824  b200              SXTH     r0,r0
000826  9006              STR      r0,[sp,#0x18]
000828  4815              LDR      r0,|L5.2176|
00082a  8900              LDRH     r0,[r0,#8]  ; Sprite_16BPP_565_Mushroom_Super_icon_red
00082c  f50070aa          ADD      r0,r0,#0x154
000830  b200              SXTH     r0,r0
000832  4603              MOV      r3,r0
000834  2232              MOVS     r2,#0x32
000836  9007              STR      r0,[sp,#0x1c]
000838  480f              LDR      r0,|L5.2168|
00083a  9906              LDR      r1,[sp,#0x18]
00083c  f7fffffe          BL       eGFX_DrawVline
;;;921    				eGFX_DrawVline(&eGFX_BackBuffer,SLIDER4_REGION_STOP_Y+Sprite_16BPP_565_Mushroom_Super_icon_red.SizeY/2-1,SLIDER4_REGION_START_Y,SLIDER4_REGION_STOP_X+5,eGFX_RGB888_TO_RGB565(255,255,255));
000840  480e              LDR      r0,|L5.2172|
000842  9000              STR      r0,[sp,#0]
000844  480e              LDR      r0,|L5.2176|
000846  8940              LDRH     r0,[r0,#0xa]  ; Sprite_16BPP_565_Mushroom_Super_icon_red
000848  9008              STR      r0,[sp,#0x20]
00084a  eb0070d0          ADD      r0,r0,r0,LSR #31
00084e  1040              ASRS     r0,r0,#1
000850  30c4              ADDS     r0,r0,#0xc4
000852  b200              SXTH     r0,r0
000854  9006              STR      r0,[sp,#0x18]
000856  480a              LDR      r0,|L5.2176|
000858  8900              LDRH     r0,[r0,#8]  ; Sprite_16BPP_565_Mushroom_Super_icon_red
00085a  f50070aa          ADD      r0,r0,#0x154
00085e  b200              SXTH     r0,r0
000860  4603              MOV      r3,r0
000862  2232              MOVS     r2,#0x32
000864  9007              STR      r0,[sp,#0x1c]
000866  4804              LDR      r0,|L5.2168|
000868  9906              LDR      r1,[sp,#0x18]
00086a  f7fffffe          BL       eGFX_DrawVline
;;;922    				eGFX_Dump(&eGFX_BackBuffer);
00086e  4802              LDR      r0,|L5.2168|
000870  f7fffffe          BL       eGFX_Dump
;;;923    	}
000874  b011              ADD      sp,sp,#0x44
000876  bd00              POP      {pc}
                  |L5.2168|
                          DCD      eGFX_BackBuffer
                  |L5.2172|
                          DCD      0x0001ffff
                  |L5.2176|
                          DCD      Sprite_16BPP_565_Mushroom_Super_icon_red
                  |L5.2180|
                          DCD      MidSliderPosition
                  |L5.2184|
                          DCD      TrebleSliderPosition
                  |L5.2188|
                          DCD      VolumeSliderPosition
                          ENDP


                          AREA ||i.HomeScreen||, CODE, READONLY, ALIGN=2

                  HomeScreen PROC
;;;189    }
;;;190    void HomeScreen()
000000  b508              PUSH     {r3,lr}
;;;191    {
;;;192    		eGFX_ImagePlane_Clear(&eGFX_BackBuffer);
000002  4826              LDR      r0,|L6.156|
000004  f7fffffe          BL       eGFX_ImagePlane_Clear
;;;193    	
;;;194    		eGFX_printf_HorizontalCentered_Colored(&eGFX_BackBuffer,
000008  a025              ADR      r0,|L6.160|
00000a  4b28              LDR      r3,|L6.172|
00000c  4a28              LDR      r2,|L6.176|
00000e  2179              MOVS     r1,#0x79
000010  9000              STR      r0,[sp,#0]
000012  4822              LDR      r0,|L6.156|
000014  f7fffffe          BL       eGFX_printf_HorizontalCentered_Colored
;;;195    											eGFX_PHYSICAL_SCREEN_SIZE_Y/2 - 15, 
;;;196    											&OCR_A_Extended__20px__Bold__SingleBitPerPixelGridFit_1BPP,   
;;;197    											eGFX_RGB888_TO_RGB565(255,255,0),
;;;198    											"fast      ");
;;;199    	
;;;200    		eGFX_printf_HorizontalCentered_Colored(&eGFX_BackBuffer,
000018  a026              ADR      r0,|L6.180|
00001a  f44f6380          MOV      r3,#0x400
00001e  4a24              LDR      r2,|L6.176|
000020  2179              MOVS     r1,#0x79
000022  9000              STR      r0,[sp,#0]
000024  481d              LDR      r0,|L6.156|
000026  f7fffffe          BL       eGFX_printf_HorizontalCentered_Colored
;;;201    											eGFX_PHYSICAL_SCREEN_SIZE_Y/2 - 15, 
;;;202    											&OCR_A_Extended__20px__Bold__SingleBitPerPixelGridFit_1BPP,   
;;;203    											eGFX_RGB888_TO_RGB565(0,128,0),
;;;204    											"      Visual");
;;;205    
;;;206    		eGFX_printf_HorizontalCentered_Colored(&eGFX_BackBuffer,
00002a  a026              ADR      r0,|L6.196|
00002c  4b1f              LDR      r3,|L6.172|
00002e  331f              ADDS     r3,r3,#0x1f
000030  4a1f              LDR      r2,|L6.176|
000032  2192              MOVS     r1,#0x92
000034  9000              STR      r0,[sp,#0]
000036  4819              LDR      r0,|L6.156|
000038  f7fffffe          BL       eGFX_printf_HorizontalCentered_Colored
;;;207    											eGFX_PHYSICAL_SCREEN_SIZE_Y/2 + 10, 
;;;208    											&OCR_A_Extended__20px__Bold__SingleBitPerPixelGridFit_1BPP,   
;;;209    											eGFX_RGB888_TO_RGB565(255,255,255),
;;;210    											"An Audio Visualizer By The Globetrotters");
;;;211    	
;;;212    		eGFX_printf_HorizontalCentered_Colored(&eGFX_BackBuffer,
00003c  a02c              ADR      r0,|L6.240|
00003e  4b1b              LDR      r3,|L6.172|
000040  331f              ADDS     r3,r3,#0x1f
000042  4a1b              LDR      r2,|L6.176|
000044  210a              MOVS     r1,#0xa
000046  9000              STR      r0,[sp,#0]
000048  4814              LDR      r0,|L6.156|
00004a  f7fffffe          BL       eGFX_printf_HorizontalCentered_Colored
;;;213    											10, 
;;;214    											&OCR_A_Extended__20px__Bold__SingleBitPerPixelGridFit_1BPP,   
;;;215    											eGFX_RGB888_TO_RGB565(255,255,255),
;;;216    											"Welcome to Home");
;;;217    	
;;;218    		eGFX_printf_HorizontalCentered_Colored(&eGFX_BackBuffer,
00004e  a02c              ADR      r0,|L6.256|
000050  f44f33fc          MOV      r3,#0x1f800
000054  4a16              LDR      r2,|L6.176|
000056  21e3              MOVS     r1,#0xe3
000058  9000              STR      r0,[sp,#0]
00005a  4810              LDR      r0,|L6.156|
00005c  f7fffffe          BL       eGFX_printf_HorizontalCentered_Colored
;;;219    											(eGFX_PHYSICAL_SCREEN_SIZE_Y-45), 
;;;220    											&OCR_A_Extended__20px__Bold__SingleBitPerPixelGridFit_1BPP,   
;;;221    											eGFX_RGB888_TO_RGB565(255,0,0),
;;;222    											"<-- Click Here For Visualizers -->");
;;;223    		// Home Button
;;;224    		eGFX_Blit(&eGFX_BackBuffer,
000060  4b30              LDR      r3,|L6.292|
000062  2200              MOVS     r2,#0
000064  f44f71d2          MOV      r1,#0x1a4
000068  480c              LDR      r0,|L6.156|
00006a  f7fffffe          BL       eGFX_Blit
;;;225    								eGFX_PHYSICAL_SCREEN_SIZE_X - 60, //x coordinate
;;;226    								0,			//y coordinate 
;;;227    								&Sprite_16BPP_565_home_icon);
;;;228    								
;;;229    		// Equalizer Button
;;;230    		eGFX_Blit(&eGFX_BackBuffer,
00006e  4b2e              LDR      r3,|L6.296|
000070  2200              MOVS     r2,#0
000072  210a              MOVS     r1,#0xa
000074  4809              LDR      r0,|L6.156|
000076  f7fffffe          BL       eGFX_Blit
;;;231    								10, //x coordinate
;;;232    								0,			//y coordinate 
;;;233    								&Sprite_16BPP_565_equalizer);
;;;234    								
;;;235    		// Shattered Button						
;;;236    		eGFX_Blit(&eGFX_BackBuffer,
00007a  4b2c              LDR      r3,|L6.300|
00007c  22d4              MOVS     r2,#0xd4
00007e  210a              MOVS     r1,#0xa
000080  4806              LDR      r0,|L6.156|
000082  f7fffffe          BL       eGFX_Blit
;;;237    								10, //x coordinate
;;;238    								eGFX_PHYSICAL_SCREEN_SIZE_Y - 60,			//y coordinate 
;;;239    								&Sprite_16BPP_565_piramid_silver);
;;;240    								
;;;241    		// Circles Button
;;;242    		eGFX_Blit(&eGFX_BackBuffer,
000086  4b2a              LDR      r3,|L6.304|
000088  22d4              MOVS     r2,#0xd4
00008a  f44f71d2          MOV      r1,#0x1a4
00008e  4803              LDR      r0,|L6.156|
000090  f7fffffe          BL       eGFX_Blit
;;;243    								eGFX_PHYSICAL_SCREEN_SIZE_X - 60, //x coordinate
;;;244    								eGFX_PHYSICAL_SCREEN_SIZE_Y - 60,			//y coordinate 
;;;245    								&Sprite_16BPP_565_whirl_silver);
;;;246    								
;;;247    							
;;;248    	
;;;249    		eGFX_Dump(&eGFX_BackBuffer);
000094  4801              LDR      r0,|L6.156|
000096  f7fffffe          BL       eGFX_Dump
;;;250    }
00009a  bd08              POP      {r3,pc}
;;;251    
                          ENDP

                  |L6.156|
                          DCD      eGFX_BackBuffer
                  |L6.160|
0000a0  66617374          DCB      "fast      ",0
0000a4  20202020
0000a8  202000  
0000ab  00                DCB      0
                  |L6.172|
                          DCD      0x0001ffe0
                  |L6.176|
                          DCD      OCR_A_Extended__20px__Bold__SingleBitPerPixelGridFit_1BPP
                  |L6.180|
0000b4  20202020          DCB      "      Visual",0
0000b8  20205669
0000bc  7375616c
0000c0  00      
0000c1  00                DCB      0
0000c2  00                DCB      0
0000c3  00                DCB      0
                  |L6.196|
0000c4  416e2041          DCB      "An Audio Visualizer By The Globetrotters",0
0000c8  7564696f
0000cc  20566973
0000d0  75616c69
0000d4  7a657220
0000d8  42792054
0000dc  68652047
0000e0  6c6f6265
0000e4  74726f74
0000e8  74657273
0000ec  00      
0000ed  00                DCB      0
0000ee  00                DCB      0
0000ef  00                DCB      0
                  |L6.240|
0000f0  57656c63          DCB      "Welcome to Home",0
0000f4  6f6d6520
0000f8  746f2048
0000fc  6f6d6500
                  |L6.256|
000100  3c2d2d20          DCB      "<-- Click Here For Visualizers -->",0
000104  436c6963
000108  6b204865
00010c  72652046
000110  6f722056
000114  69737561
000118  6c697a65
00011c  7273202d
000120  2d3e00  
000123  00                DCB      0
                  |L6.292|
                          DCD      Sprite_16BPP_565_home_icon
                  |L6.296|
                          DCD      Sprite_16BPP_565_equalizer
                  |L6.300|
                          DCD      Sprite_16BPP_565_piramid_silver
                  |L6.304|
                          DCD      Sprite_16BPP_565_whirl_silver

                          AREA ||i.IOCON_PinMuxSet||, CODE, READONLY, ALIGN=1

                  IOCON_PinMuxSet PROC
;;;148     */
;;;149    __STATIC_INLINE void IOCON_PinMuxSet(IOCON_Type *base, uint8_t port, uint8_t pin, uint32_t modefunc)
000000  b510              PUSH     {r4,lr}
;;;150    {
;;;151        base->PIO[port][pin] = modefunc;
000002  eb0014c1          ADD      r4,r0,r1,LSL #7
000006  f8443022          STR      r3,[r4,r2,LSL #2]
;;;152    }
00000a  bd10              POP      {r4,pc}
;;;153    
                          ENDP


                          AREA ||i.InitMicBuffers||, CODE, READONLY, ALIGN=2

                  InitMicBuffers PROC
;;;133    
;;;134    void InitMicBuffers()
000000  2000              MOVS     r0,#0
;;;135    {
;;;136    	for (int i=0;i<BUFFER_SIZE;i++)
000002  e00e              B        |L8.34|
                  |L8.4|
;;;137    	{
;;;138    		MicBuffer1[i] = 0;
000004  ed9f0a0d          VLDR     s0,|L8.60|
000008  490d              LDR      r1,|L8.64|
00000a  eb010180          ADD      r1,r1,r0,LSL #2
00000e  ed810a00          VSTR     s0,[r1,#0]
;;;139    		MicBuffer2[i] = 0;
000012  ed9f0a0a          VLDR     s0,|L8.60|
000016  490b              LDR      r1,|L8.68|
000018  eb010180          ADD      r1,r1,r0,LSL #2
00001c  ed810a00          VSTR     s0,[r1,#0]
000020  1c40              ADDS     r0,r0,#1              ;136
                  |L8.34|
000022  f5b06f80          CMP      r0,#0x400             ;136
000026  dbed              BLT      |L8.4|
;;;140    	}
;;;141    
;;;142    	MicBuffer = MicBuffer1;
000028  4805              LDR      r0,|L8.64|
00002a  4907              LDR      r1,|L8.72|
00002c  6008              STR      r0,[r1,#0]  ; MicBuffer
;;;143    
;;;144    	BackgroundMicBuffer = MicBuffer2;
00002e  4805              LDR      r0,|L8.68|
000030  4906              LDR      r1,|L8.76|
000032  6008              STR      r0,[r1,#0]  ; BackgroundMicBuffer
;;;145    
;;;146    	NextBufferReady = 0;
000034  2000              MOVS     r0,#0
000036  4906              LDR      r1,|L8.80|
000038  6008              STR      r0,[r1,#0]  ; NextBufferReady
;;;147    }
00003a  4770              BX       lr
;;;148    
                          ENDP

                  |L8.60|
00003c  00000000          DCFS     0x00000000 ; 0
                  |L8.64|
                          DCD      MicBuffer1
                  |L8.68|
                          DCD      MicBuffer2
                  |L8.72|
                          DCD      MicBuffer
                  |L8.76|
                          DCD      BackgroundMicBuffer
                  |L8.80|
                          DCD      NextBufferReady

                          AREA ||i.LinesVisual||, CODE, READONLY, ALIGN=2

                  LinesVisual PROC
;;;640    
;;;641    void LinesVisual()
000000  b510              PUSH     {r4,lr}
;;;642    {
000002  ed2d8b0a          VPUSH    {d8-d12}
000006  b082              SUB      sp,sp,#8
;;;643    	if(NextBufferReady == 1)
000008  48cf              LDR      r0,|L9.840|
00000a  6800              LDR      r0,[r0,#0]  ; NextBufferReady
00000c  2801              CMP      r0,#1
00000e  d17c              BNE      |L9.266|
;;;644    			{
;;;645    				GPIO->SET[TEST2_PORT]=1<<TEST2_PIN;
000010  0541              LSLS     r1,r0,#21
000012  48ce              LDR      r0,|L9.844|
000014  60c1              STR      r1,[r0,#0xc]
;;;646    				
;;;647    				arm_rfft_fast_f32(&MyFFT,
000016  2300              MOVS     r3,#0
000018  4acd              LDR      r2,|L9.848|
00001a  48ce              LDR      r0,|L9.852|
00001c  6801              LDR      r1,[r0,#0]  ; MicBuffer
00001e  48ce              LDR      r0,|L9.856|
000020  f7fffffe          BL       arm_rfft_fast_f32
;;;648    													  (float *)MicBuffer,
;;;649    													  FFT_RawDataOut,0);
;;;650    				
;;;651    				GPIO->CLR[TEST2_PORT]=1<<TEST2_PIN;
000024  f44f1100          MOV      r1,#0x200000
000028  48c8              LDR      r0,|L9.844|
00002a  3080              ADDS     r0,r0,#0x80
00002c  60c1              STR      r1,[r0,#0xc]
;;;652    														
;;;653    				 arm_cmplx_mag_squared_f32(FFT_RawDataOut,
00002e  1542              ASRS     r2,r0,#21
000030  49ca              LDR      r1,|L9.860|
000032  48c7              LDR      r0,|L9.848|
000034  f7fffffe          BL       arm_cmplx_mag_squared_f32
;;;654    																	 FFT_PowerSpectrum,
;;;655    																	 BUFFER_SIZE/2
;;;656    																	);
;;;657    										
;;;658    				 eGFX_ImagePlane_Clear(&eGFX_BackBuffer);
000038  48c9              LDR      r0,|L9.864|
00003a  f7fffffe          BL       eGFX_ImagePlane_Clear
;;;659    
;;;660    				// Equalizer Button
;;;661    				eGFX_Blit(&eGFX_BackBuffer,
00003e  4bc9              LDR      r3,|L9.868|
000040  2200              MOVS     r2,#0
000042  210a              MOVS     r1,#0xa
000044  48c6              LDR      r0,|L9.864|
000046  f7fffffe          BL       eGFX_Blit
;;;662    								10, //x coordinate
;;;663    								0,			//y coordinate 
;;;664    								&Sprite_16BPP_565_equalizer);
;;;665    														
;;;666    				for(int i=0;i<eGFX_PHYSICAL_SCREEN_SIZE_X;i++)
00004a  2400              MOVS     r4,#0
00004c  e16e              B        |L9.812|
                  |L9.78|
;;;667    				{
;;;668    								float Point1 = (VolumeSliderValue*MicBuffer[i-1]*(eGFX_PHYSICAL_SCREEN_SIZE_X/2));
00004e  1e60              SUBS     r0,r4,#1
000050  49c0              LDR      r1,|L9.852|
000052  6809              LDR      r1,[r1,#0]  ; MicBuffer
000054  eb010080          ADD      r0,r1,r0,LSL #2
000058  ed900a00          VLDR     s0,[r0,#0]
00005c  48c2              LDR      r0,|L9.872|
00005e  edd00a00          VLDR     s1,[r0,#0]
000062  ee200a20          VMUL.F32 s0,s0,s1
000066  eddf0ac1          VLDR     s1,|L9.876|
00006a  ee200a20          VMUL.F32 s0,s0,s1
00006e  eeb08a40          VMOV.F32 s16,s0
;;;669    
;;;670    								float Point2 = (VolumeSliderValue*MicBuffer[i]*(eGFX_PHYSICAL_SCREEN_SIZE_Y/2));
000072  48b8              LDR      r0,|L9.852|
000074  6800              LDR      r0,[r0,#0]  ; MicBuffer
000076  eb000084          ADD      r0,r0,r4,LSL #2
00007a  ed900a00          VLDR     s0,[r0,#0]
00007e  48ba              LDR      r0,|L9.872|
000080  edd00a00          VLDR     s1,[r0,#0]
000084  ee200a20          VMUL.F32 s0,s0,s1
000088  eddf0ab9          VLDR     s1,|L9.880|
00008c  ee200a20          VMUL.F32 s0,s0,s1
000090  eef08a40          VMOV.F32 s17,s0
;;;671    								
;;;672    								float Point3 = (VolumeSliderValue*MicBuffer[i-1]*(eGFX_PHYSICAL_SCREEN_SIZE_X/1.5));
000094  1e60              SUBS     r0,r4,#1
000096  4aaf              LDR      r2,|L9.852|
000098  6812              LDR      r2,[r2,#0]  ; MicBuffer
00009a  eb020080          ADD      r0,r2,r0,LSL #2
00009e  ed900a00          VLDR     s0,[r0,#0]
0000a2  48b1              LDR      r0,|L9.872|
0000a4  edd00a00          VLDR     s1,[r0,#0]
0000a8  ee200a20          VMUL.F32 s0,s0,s1
0000ac  ee101a10          VMOV     r1,s0
0000b0  4608              MOV      r0,r1
0000b2  f7fffffe          BL       __aeabi_f2d
0000b6  ec410b1b          VMOV     d11,r0,r1
0000ba  ed9f0bae          VLDR     d0,|L9.884|
0000be  ec532b10          VMOV     r2,r3,d0
0000c2  f7fffffe          BL       __aeabi_dmul
0000c6  ec410b1a          VMOV     d10,r0,r1
0000ca  f7fffffe          BL       __aeabi_d2f
0000ce  ee090a10          VMOV     s18,r0
;;;673    
;;;674    								float Point4 = -(VolumeSliderValue*MicBuffer[i]*(eGFX_PHYSICAL_SCREEN_SIZE_Y/2));
0000d2  48a0              LDR      r0,|L9.852|
0000d4  6800              LDR      r0,[r0,#0]  ; MicBuffer
0000d6  eb000084          ADD      r0,r0,r4,LSL #2
0000da  ed900a00          VLDR     s0,[r0,#0]
0000de  48a2              LDR      r0,|L9.872|
0000e0  edd00a00          VLDR     s1,[r0,#0]
0000e4  ee200a20          VMUL.F32 s0,s0,s1
0000e8  eddf0aa1          VLDR     s1,|L9.880|
0000ec  ee200a60          VNMUL.F32 s0,s0,s1
0000f0  eef09a40          VMOV.F32 s19,s0
;;;675    								
;;;676    								float Point5 = -(VolumeSliderValue*MicBuffer[i-1]*(eGFX_PHYSICAL_SCREEN_SIZE_X/2));
0000f4  1e60              SUBS     r0,r4,#1
0000f6  4997              LDR      r1,|L9.852|
0000f8  6809              LDR      r1,[r1,#0]  ; MicBuffer
0000fa  eb010080          ADD      r0,r1,r0,LSL #2
0000fe  ed900a00          VLDR     s0,[r0,#0]
000102  4899              LDR      r0,|L9.872|
000104  edd00a00          VLDR     s1,[r0,#0]
000108  e000              B        |L9.268|
                  |L9.266|
00010a  e113              B        |L9.820|
                  |L9.268|
00010c  ee200a20          VMUL.F32 s0,s0,s1
000110  eddf0a96          VLDR     s1,|L9.876|
000114  ee200a60          VNMUL.F32 s0,s0,s1
000118  eeb0ca40          VMOV.F32 s24,s0
;;;677    
;;;678    								float Point6 = (VolumeSliderValue*MicBuffer[i]*(eGFX_PHYSICAL_SCREEN_SIZE_Y/3));
00011c  488d              LDR      r0,|L9.852|
00011e  6800              LDR      r0,[r0,#0]  ; MicBuffer
000120  eb000084          ADD      r0,r0,r4,LSL #2
000124  ed900a00          VLDR     s0,[r0,#0]
000128  488f              LDR      r0,|L9.872|
00012a  edd00a00          VLDR     s1,[r0,#0]
00012e  ee200a20          VMUL.F32 s0,s0,s1
000132  eddf0a92          VLDR     s1,|L9.892|
000136  ee200a20          VMUL.F32 s0,s0,s1
00013a  eef0ca40          VMOV.F32 s25,s0
;;;679    					
;;;680    					if (i < (200/BassSliderValue) && i < (300*BassSliderValue))   			
00013e  4890              LDR      r0,|L9.896|
000140  ed900a00          VLDR     s0,[r0,#0]
000144  ed9f1a8f          VLDR     s2,|L9.900|
000148  eec10a00          VDIV.F32 s1,s2,s0
00014c  ee004a10          VMOV     s0,r4
000150  eeb80ac0          VCVT.F32.S32 s0,s0
000154  eef40ac0          VCMPE.F32 s1,s0
000158  eef1fa10          VMRS     APSR_nzcv,FPSCR
00015c  dd47              BLE      |L9.494|
00015e  ed900a00          VLDR     s0,[r0,#0]
000162  eddf0a89          VLDR     s1,|L9.904|
000166  ee600a20          VMUL.F32 s1,s0,s1
00016a  ee004a10          VMOV     s0,r4
00016e  eeb80ac0          VCVT.F32.S32 s0,s0
000172  eef40ac0          VCMPE.F32 s1,s0
000176  eef1fa10          VMRS     APSR_nzcv,FPSCR
00017a  dd38              BLE      |L9.494|
;;;681    
;;;682    								{eGFX_DrawLine(&eGFX_BackBuffer, 
00017c  f44f6180          MOV      r1,#0x400
000180  ed9f0a7b          VLDR     s0,|L9.880|
000184  ee380a80          VADD.F32 s0,s17,s0
000188  eebd0ac0          VCVT.S32.F32 s0,s0
00018c  ee100a10          VMOV     r0,s0
000190  b200              SXTH     r0,r0
000192  ed9f0a77          VLDR     s0,|L9.880|
000196  ee380a00          VADD.F32 s0,s16,s0
00019a  eebd0ac0          VCVT.S32.F32 s0,s0
00019e  e9cd0100          STRD     r0,r1,[sp,#0]
0001a2  ee100a10          VMOV     r0,s0
0001a6  b202              SXTH     r2,r0
0001a8  1e60              SUBS     r0,r4,#1
0001aa  b201              SXTH     r1,r0
0001ac  b223              SXTH     r3,r4
0001ae  486c              LDR      r0,|L9.864|
0001b0  f7fffffe          BL       eGFX_DrawLine
;;;683    												i-1, Point1+eGFX_PHYSICAL_SCREEN_SIZE_Y/2, 
;;;684    												i,   Point2+eGFX_PHYSICAL_SCREEN_SIZE_Y/2,
;;;685    												eGFX_RGB888_TO_RGB565(0,128,0)
;;;686    												);
;;;687    									eGFX_DrawLine(&eGFX_BackBuffer, 
0001b4  f44f6180          MOV      r1,#0x400
0001b8  ed9f0a6d          VLDR     s0,|L9.880|
0001bc  ee390a80          VADD.F32 s0,s19,s0
0001c0  eebd0ac0          VCVT.S32.F32 s0,s0
0001c4  ee100a10          VMOV     r0,s0
0001c8  b200              SXTH     r0,r0
0001ca  ed9f0a69          VLDR     s0,|L9.880|
0001ce  ee390a00          VADD.F32 s0,s18,s0
0001d2  eebd0ac0          VCVT.S32.F32 s0,s0
0001d6  e9cd0100          STRD     r0,r1,[sp,#0]
0001da  ee100a10          VMOV     r0,s0
0001de  b202              SXTH     r2,r0
0001e0  1e60              SUBS     r0,r4,#1
0001e2  b201              SXTH     r1,r0
0001e4  b223              SXTH     r3,r4
0001e6  485e              LDR      r0,|L9.864|
0001e8  f7fffffe          BL       eGFX_DrawLine
0001ec  e09d              B        |L9.810|
                  |L9.494|
;;;688    												i-1, Point3+eGFX_PHYSICAL_SCREEN_SIZE_Y/2, 
;;;689    												i,   Point4+eGFX_PHYSICAL_SCREEN_SIZE_Y/2,
;;;690    												eGFX_RGB888_TO_RGB565(0,128,0)
;;;691    												);
;;;692    								}
;;;693    				else if (i >= (200/MidSliderValue) && i < (400/MidSliderValue)) 
0001ee  4867              LDR      r0,|L9.908|
0001f0  ed900a00          VLDR     s0,[r0,#0]
0001f4  ed9f1a63          VLDR     s2,|L9.900|
0001f8  eec10a00          VDIV.F32 s1,s2,s0
0001fc  ee004a10          VMOV     s0,r4
000200  eeb80ac0          VCVT.F32.S32 s0,s0
000204  eef40ac0          VCMPE.F32 s1,s0
000208  eef1fa10          VMRS     APSR_nzcv,FPSCR
00020c  d845              BHI      |L9.666|
00020e  ed900a00          VLDR     s0,[r0,#0]
000212  ed9f1a5f          VLDR     s2,|L9.912|
000216  eec10a00          VDIV.F32 s1,s2,s0
00021a  ee004a10          VMOV     s0,r4
00021e  eeb80ac0          VCVT.F32.S32 s0,s0
000222  eef40ac0          VCMPE.F32 s1,s0
000226  eef1fa10          VMRS     APSR_nzcv,FPSCR
00022a  dd36              BLE      |L9.666|
;;;694    
;;;695    								{eGFX_DrawLine(&eGFX_BackBuffer, 
00022c  4959              LDR      r1,|L9.916|
00022e  ed9f0a50          VLDR     s0,|L9.880|
000232  ee380a80          VADD.F32 s0,s17,s0
000236  eebd0ac0          VCVT.S32.F32 s0,s0
00023a  ee100a10          VMOV     r0,s0
00023e  b200              SXTH     r0,r0
000240  ed9f0a4b          VLDR     s0,|L9.880|
000244  ee380a00          VADD.F32 s0,s16,s0
000248  eebd0ac0          VCVT.S32.F32 s0,s0
00024c  e9cd0100          STRD     r0,r1,[sp,#0]
000250  ee100a10          VMOV     r0,s0
000254  b202              SXTH     r2,r0
000256  1e60              SUBS     r0,r4,#1
000258  b201              SXTH     r1,r0
00025a  b223              SXTH     r3,r4
00025c  4840              LDR      r0,|L9.864|
00025e  f7fffffe          BL       eGFX_DrawLine
;;;696    												i-1, Point1+eGFX_PHYSICAL_SCREEN_SIZE_Y/2, 
;;;697    												i,   Point2+eGFX_PHYSICAL_SCREEN_SIZE_Y/2,
;;;698    												eGFX_RGB888_TO_RGB565(255,255,0)
;;;699    												);
;;;700    									eGFX_DrawLine(&eGFX_BackBuffer, 
000262  494c              LDR      r1,|L9.916|
000264  ed9f0a42          VLDR     s0,|L9.880|
000268  ee390a80          VADD.F32 s0,s19,s0
00026c  eebd0ac0          VCVT.S32.F32 s0,s0
000270  ee100a10          VMOV     r0,s0
000274  b200              SXTH     r0,r0
000276  ed9f0a3e          VLDR     s0,|L9.880|
00027a  ee390a00          VADD.F32 s0,s18,s0
00027e  eebd0ac0          VCVT.S32.F32 s0,s0
000282  e9cd0100          STRD     r0,r1,[sp,#0]
000286  ee100a10          VMOV     r0,s0
00028a  b202              SXTH     r2,r0
00028c  1e60              SUBS     r0,r4,#1
00028e  b201              SXTH     r1,r0
000290  b223              SXTH     r3,r4
000292  4833              LDR      r0,|L9.864|
000294  f7fffffe          BL       eGFX_DrawLine
000298  e047              B        |L9.810|
                  |L9.666|
;;;701    												i-1, Point3+eGFX_PHYSICAL_SCREEN_SIZE_Y/2, 
;;;702    												i,   Point4+eGFX_PHYSICAL_SCREEN_SIZE_Y/2,
;;;703    												eGFX_RGB888_TO_RGB565(255,255,0)
;;;704    												);
;;;705    								}
;;;706    							else if (i >= (400/TrebleSliderValue))
00029a  483f              LDR      r0,|L9.920|
00029c  ed900a00          VLDR     s0,[r0,#0]
0002a0  ed9f1a3b          VLDR     s2,|L9.912|
0002a4  eec10a00          VDIV.F32 s1,s2,s0
0002a8  ee004a10          VMOV     s0,r4
0002ac  eeb80ac0          VCVT.F32.S32 s0,s0
0002b0  eef40ac0          VCMPE.F32 s1,s0
0002b4  eef1fa10          VMRS     APSR_nzcv,FPSCR
0002b8  d837              BHI      |L9.810|
;;;707    								{eGFX_DrawLine(&eGFX_BackBuffer, 
0002ba  f44f31fc          MOV      r1,#0x1f800
0002be  ed9f0a2c          VLDR     s0,|L9.880|
0002c2  ee380a80          VADD.F32 s0,s17,s0
0002c6  eebd0ac0          VCVT.S32.F32 s0,s0
0002ca  ee100a10          VMOV     r0,s0
0002ce  b200              SXTH     r0,r0
0002d0  ed9f0a27          VLDR     s0,|L9.880|
0002d4  ee380a00          VADD.F32 s0,s16,s0
0002d8  eebd0ac0          VCVT.S32.F32 s0,s0
0002dc  e9cd0100          STRD     r0,r1,[sp,#0]
0002e0  ee100a10          VMOV     r0,s0
0002e4  b202              SXTH     r2,r0
0002e6  1e60              SUBS     r0,r4,#1
0002e8  b201              SXTH     r1,r0
0002ea  b223              SXTH     r3,r4
0002ec  481c              LDR      r0,|L9.864|
0002ee  f7fffffe          BL       eGFX_DrawLine
;;;708    												i-1, Point1+eGFX_PHYSICAL_SCREEN_SIZE_Y/2, 
;;;709    												i,   Point2+eGFX_PHYSICAL_SCREEN_SIZE_Y/2,
;;;710    												eGFX_RGB888_TO_RGB565(255,0,0)
;;;711    												);
;;;712    									eGFX_DrawLine(&eGFX_BackBuffer, 
0002f2  f44f31fc          MOV      r1,#0x1f800
0002f6  ed9f0a1e          VLDR     s0,|L9.880|
0002fa  ee390a80          VADD.F32 s0,s19,s0
0002fe  eebd0ac0          VCVT.S32.F32 s0,s0
000302  ee100a10          VMOV     r0,s0
000306  b200              SXTH     r0,r0
000308  ed9f0a19          VLDR     s0,|L9.880|
00030c  ee390a00          VADD.F32 s0,s18,s0
000310  eebd0ac0          VCVT.S32.F32 s0,s0
000314  e9cd0100          STRD     r0,r1,[sp,#0]
000318  ee100a10          VMOV     r0,s0
00031c  b202              SXTH     r2,r0
00031e  1e60              SUBS     r0,r4,#1
000320  b201              SXTH     r1,r0
000322  b223              SXTH     r3,r4
000324  480e              LDR      r0,|L9.864|
000326  f7fffffe          BL       eGFX_DrawLine
                  |L9.810|
00032a  1c64              ADDS     r4,r4,#1              ;666
                  |L9.812|
00032c  f5b47ff0          CMP      r4,#0x1e0             ;666
000330  f6ffae8d          BLT      |L9.78|
                  |L9.820|
;;;713    												i-1, Point3+eGFX_PHYSICAL_SCREEN_SIZE_Y/2, 
;;;714    												i,   Point4+eGFX_PHYSICAL_SCREEN_SIZE_Y/2,
;;;715    												eGFX_RGB888_TO_RGB565(255,0,0)
;;;716    												);
;;;717    								
;;;718    								}
;;;719    
;;;720    											}
;;;721    				}	
;;;722    				
;;;723    				
;;;724    														
;;;725    				eGFX_Dump(&eGFX_BackBuffer);
000334  480a              LDR      r0,|L9.864|
000336  f7fffffe          BL       eGFX_Dump
;;;726    					
;;;727    				NextBufferReady = 0;
00033a  2000              MOVS     r0,#0
00033c  4902              LDR      r1,|L9.840|
00033e  6008              STR      r0,[r1,#0]  ; NextBufferReady
;;;728    		}
000340  b002              ADD      sp,sp,#8
000342  ecbd8b0a          VPOP     {d8-d12}
000346  bd10              POP      {r4,pc}
;;;729    
                          ENDP

                  |L9.840|
                          DCD      NextBufferReady
                  |L9.844|
                          DCD      0x4008e200
                  |L9.848|
                          DCD      FFT_RawDataOut
                  |L9.852|
                          DCD      MicBuffer
                  |L9.856|
                          DCD      MyFFT
                  |L9.860|
                          DCD      FFT_PowerSpectrum
                  |L9.864|
                          DCD      eGFX_BackBuffer
                  |L9.868|
                          DCD      Sprite_16BPP_565_equalizer
                  |L9.872|
                          DCD      VolumeSliderValue
                  |L9.876|
00036c  43700000          DCFS     0x43700000 ; 240
                  |L9.880|
000370  43080000          DCFS     0x43080000 ; 136
                  |L9.884|
000374  00000000          DCFD     0x4074000000000000 ; 320
000378  40740000
                  |L9.892|
00037c  42b40000          DCFS     0x42b40000 ; 90
                  |L9.896|
                          DCD      BassSliderValue
                  |L9.900|
000384  43480000          DCFS     0x43480000 ; 200
                  |L9.904|
000388  43960000          DCFS     0x43960000 ; 300
                  |L9.908|
                          DCD      MidSliderValue
                  |L9.912|
000390  43c80000          DCFS     0x43c80000 ; 400
                  |L9.916|
                          DCD      0x0001ffe0
                  |L9.920|
                          DCD      TrebleSliderValue

                          AREA ||i.ShatteredVisual||, CODE, READONLY, ALIGN=2

                  ShatteredVisual PROC
;;;472    
;;;473    void ShatteredVisual()
000000  b500              PUSH     {lr}
;;;474    {
000002  b093              SUB      sp,sp,#0x4c
;;;475    
;;;476    	if(NextBufferReady == 1)
000004  48fe              LDR      r0,|L10.1024|
000006  6800              LDR      r0,[r0,#0]  ; NextBufferReady
000008  2801              CMP      r0,#1
00000a  d17c              BNE      |L10.262|
;;;477    			{
;;;478    				GPIO->SET[TEST2_PORT]=1<<TEST2_PIN;
00000c  0541              LSLS     r1,r0,#21
00000e  48fd              LDR      r0,|L10.1028|
000010  60c1              STR      r1,[r0,#0xc]
;;;479    				
;;;480    				arm_rfft_fast_f32(&MyFFT,
000012  2300              MOVS     r3,#0
000014  4afc              LDR      r2,|L10.1032|
000016  48fd              LDR      r0,|L10.1036|
000018  6801              LDR      r1,[r0,#0]  ; MicBuffer
00001a  48fd              LDR      r0,|L10.1040|
00001c  f7fffffe          BL       arm_rfft_fast_f32
;;;481    													  (float *)MicBuffer,
;;;482    													  FFT_RawDataOut,0);
;;;483    				
;;;484    				GPIO->CLR[TEST2_PORT]=1<<TEST2_PIN;
000020  f44f1100          MOV      r1,#0x200000
000024  48f7              LDR      r0,|L10.1028|
000026  3080              ADDS     r0,r0,#0x80
000028  60c1              STR      r1,[r0,#0xc]
;;;485    														
;;;486    				 arm_cmplx_mag_squared_f32(FFT_RawDataOut,
00002a  1542              ASRS     r2,r0,#21
00002c  49f9              LDR      r1,|L10.1044|
00002e  48f6              LDR      r0,|L10.1032|
000030  f7fffffe          BL       arm_cmplx_mag_squared_f32
;;;487    																	 FFT_PowerSpectrum,
;;;488    																	 BUFFER_SIZE/2
;;;489    																	);
;;;490    										
;;;491    				 eGFX_ImagePlane_Clear(&eGFX_BackBuffer);
000034  48f8              LDR      r0,|L10.1048|
000036  f7fffffe          BL       eGFX_ImagePlane_Clear
;;;492    				
;;;493    	/*			// Circles Button
;;;494    				eGFX_Blit(&eGFX_BackBuffer,
;;;495    								eGFX_PHYSICAL_SCREEN_SIZE_X - 60, //x coordinate
;;;496    								eGFX_PHYSICAL_SCREEN_SIZE_Y - 60,			//y coordinate 
;;;497    								&Sprite_16BPP_565_whirl_silver);
;;;498    											*/			
;;;499    				// Equalizer Button
;;;500    				eGFX_Blit(&eGFX_BackBuffer,
00003a  4bf8              LDR      r3,|L10.1052|
00003c  2200              MOVS     r2,#0
00003e  210a              MOVS     r1,#0xa
000040  48f5              LDR      r0,|L10.1048|
000042  f7fffffe          BL       eGFX_Blit
;;;501    								10, //x coordinate
;;;502    								0,			//y coordinate 
;;;503    								&Sprite_16BPP_565_equalizer);
;;;504    														
;;;505    				for(int i=0;i<eGFX_PHYSICAL_SCREEN_SIZE_X;i++)
000046  2000              MOVS     r0,#0
000048  9011              STR      r0,[sp,#0x44]
00004a  e3fd              B        |L10.2120|
                  |L10.76|
;;;506    				{
;;;507    								float Point1 = (VolumeSliderValue*MicBuffer[i-1]*(eGFX_PHYSICAL_SCREEN_SIZE_X/2));
00004c  9811              LDR      r0,[sp,#0x44]
00004e  1e40              SUBS     r0,r0,#1
000050  49ee              LDR      r1,|L10.1036|
000052  6809              LDR      r1,[r1,#0]  ; MicBuffer
000054  eb010080          ADD      r0,r1,r0,LSL #2
000058  ed900a00          VLDR     s0,[r0,#0]
00005c  48f0              LDR      r0,|L10.1056|
00005e  edd00a00          VLDR     s1,[r0,#0]
000062  ee200a20          VMUL.F32 s0,s0,s1
000066  eddf0aef          VLDR     s1,|L10.1060|
00006a  ee200a20          VMUL.F32 s0,s0,s1
00006e  ed8d0a10          VSTR     s0,[sp,#0x40]
;;;508    
;;;509    								float Point2 = (VolumeSliderValue*MicBuffer[i]*(eGFX_PHYSICAL_SCREEN_SIZE_Y/2));
000072  48e6              LDR      r0,|L10.1036|
000074  6801              LDR      r1,[r0,#0]  ; MicBuffer
000076  9811              LDR      r0,[sp,#0x44]
000078  eb010080          ADD      r0,r1,r0,LSL #2
00007c  ed900a00          VLDR     s0,[r0,#0]
000080  48e7              LDR      r0,|L10.1056|
000082  edd00a00          VLDR     s1,[r0,#0]
000086  ee200a20          VMUL.F32 s0,s0,s1
00008a  eddf0ae7          VLDR     s1,|L10.1064|
00008e  ee200a20          VMUL.F32 s0,s0,s1
000092  ed8d0a0f          VSTR     s0,[sp,#0x3c]
;;;510    								
;;;511    								float Point3 = (VolumeSliderValue*MicBuffer[i-1]*(eGFX_PHYSICAL_SCREEN_SIZE_X/1.5));
000096  9811              LDR      r0,[sp,#0x44]
000098  1e40              SUBS     r0,r0,#1
00009a  49dc              LDR      r1,|L10.1036|
00009c  6809              LDR      r1,[r1,#0]  ; MicBuffer
00009e  eb010080          ADD      r0,r1,r0,LSL #2
0000a2  ed900a00          VLDR     s0,[r0,#0]
0000a6  48de              LDR      r0,|L10.1056|
0000a8  edd00a00          VLDR     s1,[r0,#0]
0000ac  ee200a20          VMUL.F32 s0,s0,s1
0000b0  ed8d0a05          VSTR     s0,[sp,#0x14]
0000b4  9805              LDR      r0,[sp,#0x14]
0000b6  f7fffffe          BL       __aeabi_f2d
0000ba  ed9f0bdc          VLDR     d0,|L10.1068|
0000be  ec532b10          VMOV     r2,r3,d0
0000c2  e9cd0106          STRD     r0,r1,[sp,#0x18]
0000c6  ed9d0b06          VLDR     d0,[sp,#0x18]
0000ca  ec510b10          VMOV     r0,r1,d0
0000ce  f7fffffe          BL       __aeabi_dmul
0000d2  e9cd0108          STRD     r0,r1,[sp,#0x20]
0000d6  ed9d0b08          VLDR     d0,[sp,#0x20]
0000da  ec510b10          VMOV     r0,r1,d0
0000de  f7fffffe          BL       __aeabi_d2f
0000e2  900e              STR      r0,[sp,#0x38]
;;;512    
;;;513    								float Point4 = -(VolumeSliderValue*MicBuffer[i]*(eGFX_PHYSICAL_SCREEN_SIZE_Y/2));
0000e4  48c9              LDR      r0,|L10.1036|
0000e6  6801              LDR      r1,[r0,#0]  ; MicBuffer
0000e8  9811              LDR      r0,[sp,#0x44]
0000ea  eb010080          ADD      r0,r1,r0,LSL #2
0000ee  edd00a00          VLDR     s1,[r0,#0]
0000f2  48cb              LDR      r0,|L10.1056|
0000f4  ed900a00          VLDR     s0,[r0,#0]
0000f8  ee600a80          VMUL.F32 s1,s1,s0
0000fc  ed9f0aca          VLDR     s0,|L10.1064|
000100  ee200ac0          VNMUL.F32 s0,s1,s0
000104  e000              B        |L10.264|
                  |L10.262|
000106  e3fd              B        |L10.2308|
                  |L10.264|
000108  ed8d0a0d          VSTR     s0,[sp,#0x34]
;;;514    								
;;;515    								float Point5 = -(VolumeSliderValue*MicBuffer[i-1]*(eGFX_PHYSICAL_SCREEN_SIZE_X/2));
00010c  9811              LDR      r0,[sp,#0x44]
00010e  1e40              SUBS     r0,r0,#1
000110  49be              LDR      r1,|L10.1036|
000112  6809              LDR      r1,[r1,#0]  ; MicBuffer
000114  eb010080          ADD      r0,r1,r0,LSL #2
000118  ed900a00          VLDR     s0,[r0,#0]
00011c  48c0              LDR      r0,|L10.1056|
00011e  edd00a00          VLDR     s1,[r0,#0]
000122  ee200a20          VMUL.F32 s0,s0,s1
000126  eddf0abf          VLDR     s1,|L10.1060|
00012a  ee200a60          VNMUL.F32 s0,s0,s1
00012e  ed8d0a0c          VSTR     s0,[sp,#0x30]
;;;516    
;;;517    								float Point6 = (VolumeSliderValue*MicBuffer[i]*(eGFX_PHYSICAL_SCREEN_SIZE_Y/3));
000132  48b6              LDR      r0,|L10.1036|
000134  6801              LDR      r1,[r0,#0]  ; MicBuffer
000136  9811              LDR      r0,[sp,#0x44]
000138  eb010080          ADD      r0,r1,r0,LSL #2
00013c  ed900a00          VLDR     s0,[r0,#0]
000140  48b7              LDR      r0,|L10.1056|
000142  edd00a00          VLDR     s1,[r0,#0]
000146  ee200a20          VMUL.F32 s0,s0,s1
00014a  eddf0aba          VLDR     s1,|L10.1076|
00014e  ee200a20          VMUL.F32 s0,s0,s1
000152  ed8d0a0b          VSTR     s0,[sp,#0x2c]
;;;518    					
;;;519    					if (i < (200/BassSliderValue) && i < (300*BassSliderValue))
000156  48b8              LDR      r0,|L10.1080|
000158  ed900a00          VLDR     s0,[r0,#0]
00015c  ed9f1ab7          VLDR     s2,|L10.1084|
000160  eec10a00          VDIV.F32 s1,s2,s0
000164  ed9d0a11          VLDR     s0,[sp,#0x44]
000168  eeb80ac0          VCVT.F32.S32 s0,s0
00016c  eef40ac0          VCMPE.F32 s1,s0
000170  eef1fa10          VMRS     APSR_nzcv,FPSCR
                  |L10.372|
000174  dd7e              BLE      |L10.628|
000176  ed900a00          VLDR     s0,[r0,#0]
00017a  eddf0ab1          VLDR     s1,|L10.1088|
00017e  ee600a20          VMUL.F32 s1,s0,s1
000182  ed9d0a11          VLDR     s0,[sp,#0x44]
000186  eeb80ac0          VCVT.F32.S32 s0,s0
00018a  eef40ac0          VCMPE.F32 s1,s0
00018e  eef1fa10          VMRS     APSR_nzcv,FPSCR
000192  ddef              BLE      |L10.372|
;;;520    								{
;;;521    									eGFX_DrawHline(&eGFX_BackBuffer,                       
000194  499f              LDR      r1,|L10.1044|
000196  9811              LDR      r0,[sp,#0x44]
000198  eb010080          ADD      r0,r1,r0,LSL #2
00019c  ed900a00          VLDR     s0,[r0,#0]
0001a0  eeb21a08          VMOV.F32 s2,#12.00000000
0001a4  eec00a01          VDIV.F32 s1,s0,s2
0001a8  48a3              LDR      r0,|L10.1080|
0001aa  ed900a00          VLDR     s0,[r0,#0]
0001ae  ee200a80          VMUL.F32 s0,s1,s0
0001b2  ed8d0a01          VSTR     s0,[sp,#4]
0001b6  9801              LDR      r0,[sp,#4]
0001b8  f7fffffe          BL       __aeabi_f2d
0001bc  e9cd0104          STRD     r0,r1,[sp,#0x10]
0001c0  980f              LDR      r0,[sp,#0x3c]
0001c2  f7fffffe          BL       __aeabi_f2d
0001c6  ed9f0b9f          VLDR     d0,|L10.1092|
0001ca  ec532b10          VMOV     r2,r3,d0
0001ce  e9cd0100          STRD     r0,r1,[sp,#0]
0001d2  ed9d0b00          VLDR     d0,[sp,#0]
0001d6  ec510b10          VMOV     r0,r1,d0
0001da  f7fffffe          BL       __aeabi_dadd
0001de  e9cd0102          STRD     r0,r1,[sp,#8]
0001e2  ed9d0b04          VLDR     d0,[sp,#0x10]
0001e6  ec532b10          VMOV     r2,r3,d0
0001ea  ed9d0b02          VLDR     d0,[sp,#8]
0001ee  ec510b10          VMOV     r0,r1,d0
0001f2  f7fffffe          BL       __aeabi_dsub
0001f6  e9cd0106          STRD     r0,r1,[sp,#0x18]
0001fa  ed9d0b06          VLDR     d0,[sp,#0x18]
0001fe  ec510b10          VMOV     r0,r1,d0
000202  f7fffffe          BL       __aeabi_d2iz
000206  b200              SXTH     r0,r0
000208  900a              STR      r0,[sp,#0x28]
00020a  980f              LDR      r0,[sp,#0x3c]
00020c  f7fffffe          BL       __aeabi_f2d
000210  ed9f0b8e          VLDR     d0,|L10.1100|
000214  ec532b10          VMOV     r2,r3,d0
000218  e9cd0104          STRD     r0,r1,[sp,#0x10]
00021c  ed9d0b04          VLDR     d0,[sp,#0x10]
000220  ec510b10          VMOV     r0,r1,d0
000224  f7fffffe          BL       __aeabi_dadd
000228  e9cd0106          STRD     r0,r1,[sp,#0x18]
00022c  ed9d0b06          VLDR     d0,[sp,#0x18]
000230  ec510b10          VMOV     r0,r1,d0
000234  f7fffffe          BL       __aeabi_d2iz
000238  b200              SXTH     r0,r0
00023a  9009              STR      r0,[sp,#0x24]
00023c  9810              LDR      r0,[sp,#0x40]
00023e  f7fffffe          BL       __aeabi_f2d
000242  ed9f0b82          VLDR     d0,|L10.1100|
000246  ec532b10          VMOV     r2,r3,d0
00024a  e9cd0104          STRD     r0,r1,[sp,#0x10]
00024e  ed9d0b04          VLDR     d0,[sp,#0x10]
000252  ec510b10          VMOV     r0,r1,d0
000256  f7fffffe          BL       __aeabi_dadd
00025a  e9cd0106          STRD     r0,r1,[sp,#0x18]
00025e  ed9d0b06          VLDR     d0,[sp,#0x18]
000262  ec510b10          VMOV     r0,r1,d0
000266  f7fffffe          BL       __aeabi_d2iz
00026a  b200              SXTH     r0,r0
00026c  9008              STR      r0,[sp,#0x20]
00026e  f44f6080          MOV      r0,#0x400
000272  e000              B        |L10.630|
                  |L10.628|
000274  e206              B        |L10.1668|
                  |L10.630|
000276  9000              STR      r0,[sp,#0]
000278  4867              LDR      r0,|L10.1048|
00027a  a908              ADD      r1,sp,#0x20
00027c  c90e              LDM      r1,{r1-r3}
00027e  f7fffffe          BL       eGFX_DrawHline
;;;522    												Point1+eGFX_PHYSICAL_SCREEN_SIZE_X/2.0,
;;;523    												Point2+eGFX_PHYSICAL_SCREEN_SIZE_X/2.0,									
;;;524    												Point2+eGFX_PHYSICAL_SCREEN_SIZE_Y/2.0 - FFT_PowerSpectrum[i]/12*BassSliderValue,																					
;;;525    												eGFX_RGB888_TO_RGB565(0,128,0)  												
;;;526    												);	
;;;527    								eGFX_DrawHline(&eGFX_BackBuffer,                       
000282  4964              LDR      r1,|L10.1044|
000284  9811              LDR      r0,[sp,#0x44]
000286  eb010080          ADD      r0,r1,r0,LSL #2
00028a  ed900a00          VLDR     s0,[r0,#0]
00028e  eeb21a08          VMOV.F32 s2,#12.00000000
000292  eec00a01          VDIV.F32 s1,s0,s2
000296  4868              LDR      r0,|L10.1080|
000298  ed900a00          VLDR     s0,[r0,#0]
00029c  ee200a80          VMUL.F32 s0,s1,s0
0002a0  ed8d0a01          VSTR     s0,[sp,#4]
0002a4  9801              LDR      r0,[sp,#4]
0002a6  f7fffffe          BL       __aeabi_f2d
0002aa  e9cd0104          STRD     r0,r1,[sp,#0x10]
0002ae  980f              LDR      r0,[sp,#0x3c]
0002b0  f7fffffe          BL       __aeabi_f2d
0002b4  ed9f0b63          VLDR     d0,|L10.1092|
0002b8  ec532b10          VMOV     r2,r3,d0
0002bc  e9cd0100          STRD     r0,r1,[sp,#0]
0002c0  ed9d0b00          VLDR     d0,[sp,#0]
0002c4  ec510b10          VMOV     r0,r1,d0
0002c8  f7fffffe          BL       __aeabi_dadd
0002cc  e9cd0102          STRD     r0,r1,[sp,#8]
0002d0  ed9d0b04          VLDR     d0,[sp,#0x10]
0002d4  ec532b10          VMOV     r2,r3,d0
0002d8  ed9d0b02          VLDR     d0,[sp,#8]
0002dc  ec510b10          VMOV     r0,r1,d0
0002e0  f7fffffe          BL       __aeabi_dsub
0002e4  e9cd0106          STRD     r0,r1,[sp,#0x18]
0002e8  ed9d0b06          VLDR     d0,[sp,#0x18]
0002ec  ec510b10          VMOV     r0,r1,d0
0002f0  f7fffffe          BL       __aeabi_d2iz
0002f4  b200              SXTH     r0,r0
0002f6  900a              STR      r0,[sp,#0x28]
0002f8  9810              LDR      r0,[sp,#0x40]
0002fa  f7fffffe          BL       __aeabi_f2d
0002fe  ed9f0b53          VLDR     d0,|L10.1100|
000302  ec532b10          VMOV     r2,r3,d0
000306  e9cd0104          STRD     r0,r1,[sp,#0x10]
00030a  ed9d0b04          VLDR     d0,[sp,#0x10]
00030e  ec510b10          VMOV     r0,r1,d0
000312  f7fffffe          BL       __aeabi_dadd
000316  e9cd0106          STRD     r0,r1,[sp,#0x18]
00031a  ed9d0b06          VLDR     d0,[sp,#0x18]
00031e  ec510b10          VMOV     r0,r1,d0
000322  f7fffffe          BL       __aeabi_d2iz
000326  b200              SXTH     r0,r0
000328  9009              STR      r0,[sp,#0x24]
00032a  9810              LDR      r0,[sp,#0x40]
00032c  f7fffffe          BL       __aeabi_f2d
000330  ed9f0b46          VLDR     d0,|L10.1100|
000334  ec532b10          VMOV     r2,r3,d0
000338  e9cd0104          STRD     r0,r1,[sp,#0x10]
00033c  ed9d0b04          VLDR     d0,[sp,#0x10]
000340  ec510b10          VMOV     r0,r1,d0
000344  f7fffffe          BL       __aeabi_dadd
000348  e9cd0106          STRD     r0,r1,[sp,#0x18]
00034c  ed9d0b06          VLDR     d0,[sp,#0x18]
000350  ec510b10          VMOV     r0,r1,d0
000354  f7fffffe          BL       __aeabi_d2iz
000358  b200              SXTH     r0,r0
00035a  9008              STR      r0,[sp,#0x20]
00035c  f44f6080          MOV      r0,#0x400
000360  9000              STR      r0,[sp,#0]
000362  482d              LDR      r0,|L10.1048|
000364  a908              ADD      r1,sp,#0x20
000366  c90e              LDM      r1,{r1-r3}
000368  f7fffffe          BL       eGFX_DrawHline
;;;528    												Point1+eGFX_PHYSICAL_SCREEN_SIZE_X/2.0,
;;;529    												Point1+eGFX_PHYSICAL_SCREEN_SIZE_X/2.0,									
;;;530    												Point2+eGFX_PHYSICAL_SCREEN_SIZE_Y/2.0 - FFT_PowerSpectrum[i]/12*BassSliderValue,																					
;;;531    												eGFX_RGB888_TO_RGB565(0,128,0)  												
;;;532    												);				
;;;533    								eGFX_DrawHline(&eGFX_BackBuffer,                       
00036c  4929              LDR      r1,|L10.1044|
00036e  9811              LDR      r0,[sp,#0x44]
000370  eb010080          ADD      r0,r1,r0,LSL #2
000374  ed900a00          VLDR     s0,[r0,#0]
000378  eeb21a08          VMOV.F32 s2,#12.00000000
00037c  eec00a01          VDIV.F32 s1,s0,s2
000380  482d              LDR      r0,|L10.1080|
000382  ed900a00          VLDR     s0,[r0,#0]
000386  ee200a80          VMUL.F32 s0,s1,s0
00038a  ed8d0a01          VSTR     s0,[sp,#4]
00038e  9801              LDR      r0,[sp,#4]
000390  f7fffffe          BL       __aeabi_f2d
000394  e9cd0104          STRD     r0,r1,[sp,#0x10]
000398  980f              LDR      r0,[sp,#0x3c]
00039a  f7fffffe          BL       __aeabi_f2d
00039e  ed9f0b29          VLDR     d0,|L10.1092|
0003a2  ec532b10          VMOV     r2,r3,d0
0003a6  e9cd0100          STRD     r0,r1,[sp,#0]
0003aa  ed9d0b00          VLDR     d0,[sp,#0]
0003ae  ec510b10          VMOV     r0,r1,d0
0003b2  f7fffffe          BL       __aeabi_dadd
0003b6  e9cd0102          STRD     r0,r1,[sp,#8]
0003ba  ed9d0b04          VLDR     d0,[sp,#0x10]
0003be  ec532b10          VMOV     r2,r3,d0
0003c2  ed9d0b02          VLDR     d0,[sp,#8]
0003c6  ec510b10          VMOV     r0,r1,d0
0003ca  f7fffffe          BL       __aeabi_dsub
0003ce  e9cd0106          STRD     r0,r1,[sp,#0x18]
0003d2  ed9d0b06          VLDR     d0,[sp,#0x18]
0003d6  ec510b10          VMOV     r0,r1,d0
0003da  f7fffffe          BL       __aeabi_d2iz
0003de  b200              SXTH     r0,r0
0003e0  900a              STR      r0,[sp,#0x28]
0003e2  980f              LDR      r0,[sp,#0x3c]
0003e4  f7fffffe          BL       __aeabi_f2d
0003e8  ed9f0b18          VLDR     d0,|L10.1100|
0003ec  ec532b10          VMOV     r2,r3,d0
0003f0  e9cd0104          STRD     r0,r1,[sp,#0x10]
0003f4  ed9d0b04          VLDR     d0,[sp,#0x10]
0003f8  ec510b10          VMOV     r0,r1,d0
0003fc  e02a              B        |L10.1108|
0003fe  0000              DCW      0x0000
                  |L10.1024|
                          DCD      NextBufferReady
                  |L10.1028|
                          DCD      0x4008e200
                  |L10.1032|
                          DCD      FFT_RawDataOut
                  |L10.1036|
                          DCD      MicBuffer
                  |L10.1040|
                          DCD      MyFFT
                  |L10.1044|
                          DCD      FFT_PowerSpectrum
                  |L10.1048|
                          DCD      eGFX_BackBuffer
                  |L10.1052|
                          DCD      Sprite_16BPP_565_equalizer
                  |L10.1056|
                          DCD      VolumeSliderValue
                  |L10.1060|
000424  43700000          DCFS     0x43700000 ; 240
                  |L10.1064|
000428  43080000          DCFS     0x43080000 ; 136
                  |L10.1068|
00042c  00000000          DCFD     0x4074000000000000 ; 320
000430  40740000
                  |L10.1076|
000434  42b40000          DCFS     0x42b40000 ; 90
                  |L10.1080|
                          DCD      BassSliderValue
                  |L10.1084|
00043c  43480000          DCFS     0x43480000 ; 200
                  |L10.1088|
000440  43960000          DCFS     0x43960000 ; 300
                  |L10.1092|
000444  00000000          DCFD     0x4061000000000000 ; 136
000448  40610000
                  |L10.1100|
00044c  00000000          DCFD     0x406e000000000000 ; 240
000450  406e0000
                  |L10.1108|
000454  f7fffffe          BL       __aeabi_dadd
000458  e9cd0106          STRD     r0,r1,[sp,#0x18]
00045c  ed9d0b06          VLDR     d0,[sp,#0x18]
000460  ec510b10          VMOV     r0,r1,d0
000464  f7fffffe          BL       __aeabi_d2iz
000468  b200              SXTH     r0,r0
00046a  9009              STR      r0,[sp,#0x24]
00046c  9810              LDR      r0,[sp,#0x40]
00046e  f7fffffe          BL       __aeabi_f2d
000472  ed1f0b0a          VLDR     d0,|L10.1100|
000476  ec532b10          VMOV     r2,r3,d0
00047a  e9cd0104          STRD     r0,r1,[sp,#0x10]
00047e  ed9d0b04          VLDR     d0,[sp,#0x10]
000482  ec510b10          VMOV     r0,r1,d0
000486  f7fffffe          BL       __aeabi_dadd
00048a  e9cd0106          STRD     r0,r1,[sp,#0x18]
00048e  ed9d0b06          VLDR     d0,[sp,#0x18]
000492  ec510b10          VMOV     r0,r1,d0
000496  f7fffffe          BL       __aeabi_d2iz
00049a  b200              SXTH     r0,r0
00049c  9008              STR      r0,[sp,#0x20]
00049e  f44f6080          MOV      r0,#0x400
0004a2  9000              STR      r0,[sp,#0]
0004a4  48fe              LDR      r0,|L10.2208|
0004a6  a908              ADD      r1,sp,#0x20
0004a8  c90e              LDM      r1,{r1-r3}
0004aa  f7fffffe          BL       eGFX_DrawHline
;;;534    												Point1+eGFX_PHYSICAL_SCREEN_SIZE_X/2.0,
;;;535    												Point2+eGFX_PHYSICAL_SCREEN_SIZE_X/2.0,									
;;;536    												Point2+eGFX_PHYSICAL_SCREEN_SIZE_Y/2.0 - FFT_PowerSpectrum[i]/12*BassSliderValue,																					
;;;537    												eGFX_RGB888_TO_RGB565(0,128,0)  												
;;;538    												);				
;;;539    								eGFX_DrawHline(&eGFX_BackBuffer,                       
0004ae  49fd              LDR      r1,|L10.2212|
0004b0  9811              LDR      r0,[sp,#0x44]
0004b2  eb010080          ADD      r0,r1,r0,LSL #2
0004b6  ed900a00          VLDR     s0,[r0,#0]
0004ba  eeb21a08          VMOV.F32 s2,#12.00000000
0004be  eec00a01          VDIV.F32 s1,s0,s2
0004c2  48f9              LDR      r0,|L10.2216|
0004c4  ed900a00          VLDR     s0,[r0,#0]
0004c8  ee200a80          VMUL.F32 s0,s1,s0
0004cc  ed8d0a01          VSTR     s0,[sp,#4]
0004d0  9801              LDR      r0,[sp,#4]
0004d2  f7fffffe          BL       __aeabi_f2d
0004d6  e9cd0104          STRD     r0,r1,[sp,#0x10]
0004da  9810              LDR      r0,[sp,#0x40]
0004dc  f7fffffe          BL       __aeabi_f2d
0004e0  ed1f0b28          VLDR     d0,|L10.1092|
0004e4  ec532b10          VMOV     r2,r3,d0
0004e8  e9cd0100          STRD     r0,r1,[sp,#0]
0004ec  ed9d0b00          VLDR     d0,[sp,#0]
0004f0  ec510b10          VMOV     r0,r1,d0
0004f4  f7fffffe          BL       __aeabi_dadd
0004f8  e9cd0102          STRD     r0,r1,[sp,#8]
0004fc  ed9d0b04          VLDR     d0,[sp,#0x10]
000500  ec532b10          VMOV     r2,r3,d0
000504  ed9d0b02          VLDR     d0,[sp,#8]
000508  ec510b10          VMOV     r0,r1,d0
00050c  f7fffffe          BL       __aeabi_dsub
000510  e9cd0106          STRD     r0,r1,[sp,#0x18]
000514  ed9d0b06          VLDR     d0,[sp,#0x18]
000518  ec510b10          VMOV     r0,r1,d0
00051c  f7fffffe          BL       __aeabi_d2iz
000520  b200              SXTH     r0,r0
000522  900a              STR      r0,[sp,#0x28]
000524  980f              LDR      r0,[sp,#0x3c]
000526  f7fffffe          BL       __aeabi_f2d
00052a  ed1f0b38          VLDR     d0,|L10.1100|
00052e  ec532b10          VMOV     r2,r3,d0
000532  e9cd0104          STRD     r0,r1,[sp,#0x10]
000536  ed9d0b04          VLDR     d0,[sp,#0x10]
00053a  ec510b10          VMOV     r0,r1,d0
00053e  f7fffffe          BL       __aeabi_dadd
000542  e9cd0106          STRD     r0,r1,[sp,#0x18]
000546  ed9d0b06          VLDR     d0,[sp,#0x18]
00054a  ec510b10          VMOV     r0,r1,d0
00054e  f7fffffe          BL       __aeabi_d2iz
000552  b200              SXTH     r0,r0
000554  9009              STR      r0,[sp,#0x24]
000556  9810              LDR      r0,[sp,#0x40]
000558  f7fffffe          BL       __aeabi_f2d
00055c  ed1f0b45          VLDR     d0,|L10.1100|
000560  ec532b10          VMOV     r2,r3,d0
000564  e9cd0104          STRD     r0,r1,[sp,#0x10]
000568  ed9d0b04          VLDR     d0,[sp,#0x10]
00056c  ec510b10          VMOV     r0,r1,d0
000570  f7fffffe          BL       __aeabi_dadd
000574  e9cd0106          STRD     r0,r1,[sp,#0x18]
000578  ed9d0b06          VLDR     d0,[sp,#0x18]
00057c  ec510b10          VMOV     r0,r1,d0
000580  f7fffffe          BL       __aeabi_d2iz
000584  b200              SXTH     r0,r0
000586  9008              STR      r0,[sp,#0x20]
000588  f44f6080          MOV      r0,#0x400
00058c  9000              STR      r0,[sp,#0]
00058e  48c4              LDR      r0,|L10.2208|
000590  a908              ADD      r1,sp,#0x20
000592  c90e              LDM      r1,{r1-r3}
000594  f7fffffe          BL       eGFX_DrawHline
;;;540    												Point1+eGFX_PHYSICAL_SCREEN_SIZE_X/2.0,
;;;541    												Point2+eGFX_PHYSICAL_SCREEN_SIZE_X/2.0,									
;;;542    												Point1+eGFX_PHYSICAL_SCREEN_SIZE_Y/2.0 - FFT_PowerSpectrum[i]/12*BassSliderValue,																					
;;;543    												eGFX_RGB888_TO_RGB565(0,128,0)  												
;;;544    												);	
;;;545    								eGFX_DrawHline(&eGFX_BackBuffer,                       
000598  49c2              LDR      r1,|L10.2212|
00059a  9811              LDR      r0,[sp,#0x44]
00059c  eb010080          ADD      r0,r1,r0,LSL #2
0005a0  ed900a00          VLDR     s0,[r0,#0]
0005a4  eef20a08          VMOV.F32 s1,#12.00000000
0005a8  ee801a20          VDIV.F32 s2,s0,s1
0005ac  48be              LDR      r0,|L10.2216|
0005ae  ed900a00          VLDR     s0,[r0,#0]
0005b2  ee210a00          VMUL.F32 s0,s2,s0
0005b6  ed8d0a01          VSTR     s0,[sp,#4]
0005ba  9801              LDR      r0,[sp,#4]
0005bc  f7fffffe          BL       __aeabi_f2d
0005c0  e9cd0104          STRD     r0,r1,[sp,#0x10]
0005c4  9810              LDR      r0,[sp,#0x40]
0005c6  f7fffffe          BL       __aeabi_f2d
0005ca  ed1f0b62          VLDR     d0,|L10.1092|
0005ce  ec532b10          VMOV     r2,r3,d0
0005d2  e9cd0100          STRD     r0,r1,[sp,#0]
0005d6  ed9d0b00          VLDR     d0,[sp,#0]
0005da  ec510b10          VMOV     r0,r1,d0
0005de  f7fffffe          BL       __aeabi_dadd
0005e2  e9cd0102          STRD     r0,r1,[sp,#8]
0005e6  ed9d0b04          VLDR     d0,[sp,#0x10]
0005ea  ec532b10          VMOV     r2,r3,d0
0005ee  ed9d0b02          VLDR     d0,[sp,#8]
0005f2  ec510b10          VMOV     r0,r1,d0
0005f6  f7fffffe          BL       __aeabi_dsub
0005fa  e9cd0106          STRD     r0,r1,[sp,#0x18]
0005fe  ed9d0b06          VLDR     d0,[sp,#0x18]
000602  ec510b10          VMOV     r0,r1,d0
000606  f7fffffe          BL       __aeabi_d2iz
00060a  b200              SXTH     r0,r0
00060c  900a              STR      r0,[sp,#0x28]
00060e  980f              LDR      r0,[sp,#0x3c]
000610  f7fffffe          BL       __aeabi_f2d
000614  ed1f0b73          VLDR     d0,|L10.1100|
000618  ec532b10          VMOV     r2,r3,d0
00061c  e9cd0104          STRD     r0,r1,[sp,#0x10]
000620  ed9d0b04          VLDR     d0,[sp,#0x10]
000624  ec510b10          VMOV     r0,r1,d0
000628  f7fffffe          BL       __aeabi_dadd
00062c  e9cd0106          STRD     r0,r1,[sp,#0x18]
000630  ed9d0b06          VLDR     d0,[sp,#0x18]
000634  ec510b10          VMOV     r0,r1,d0
000638  f7fffffe          BL       __aeabi_d2iz
00063c  b200              SXTH     r0,r0
00063e  9009              STR      r0,[sp,#0x24]
000640  9810              LDR      r0,[sp,#0x40]
000642  f7fffffe          BL       __aeabi_f2d
000646  ed1f0b7f          VLDR     d0,|L10.1100|
00064a  ec532b10          VMOV     r2,r3,d0
00064e  e9cd0104          STRD     r0,r1,[sp,#0x10]
000652  ed9d0b04          VLDR     d0,[sp,#0x10]
000656  ec510b10          VMOV     r0,r1,d0
00065a  f7fffffe          BL       __aeabi_dadd
00065e  e9cd0106          STRD     r0,r1,[sp,#0x18]
000662  ed9d0b06          VLDR     d0,[sp,#0x18]
000666  ec510b10          VMOV     r0,r1,d0
00066a  f7fffffe          BL       __aeabi_d2iz
00066e  b200              SXTH     r0,r0
000670  9008              STR      r0,[sp,#0x20]
000672  f44f6080          MOV      r0,#0x400
000676  9000              STR      r0,[sp,#0]
000678  4889              LDR      r0,|L10.2208|
00067a  a908              ADD      r1,sp,#0x20
00067c  c90e              LDM      r1,{r1-r3}
00067e  f7fffffe          BL       eGFX_DrawHline
000682  e2ed              B        |L10.3168|
                  |L10.1668|
;;;546    												Point1+eGFX_PHYSICAL_SCREEN_SIZE_X/2.0,
;;;547    												Point2+eGFX_PHYSICAL_SCREEN_SIZE_X/2.0,									
;;;548    												Point1+eGFX_PHYSICAL_SCREEN_SIZE_Y/2.0 - FFT_PowerSpectrum[i]/12*BassSliderValue,																					
;;;549    												eGFX_RGB888_TO_RGB565(0,128,0)  												
;;;550    												);	
;;;551    							}		
;;;552    					else if (i >= (200/MidSliderValue) && i < (400/MidSliderValue))
000684  4889              LDR      r0,|L10.2220|
000686  ed900a00          VLDR     s0,[r0,#0]
00068a  ed1f1a94          VLDR     s2,|L10.1084|
00068e  eec10a00          VDIV.F32 s1,s2,s0
000692  ed9d0a11          VLDR     s0,[sp,#0x44]
000696  eeb80ac0          VCVT.F32.S32 s0,s0
00069a  eef40ac0          VCMPE.F32 s1,s0
00069e  eef1fa10          VMRS     APSR_nzcv,FPSCR
0006a2  d87d              BHI      |L10.1952|
0006a4  ed900a00          VLDR     s0,[r0,#0]
0006a8  ed9f1a81          VLDR     s2,|L10.2224|
0006ac  eec10a00          VDIV.F32 s1,s2,s0
0006b0  ed9d0a11          VLDR     s0,[sp,#0x44]
0006b4  eeb80ac0          VCVT.F32.S32 s0,s0
0006b8  eef40ac0          VCMPE.F32 s1,s0
0006bc  eef1fa10          VMRS     APSR_nzcv,FPSCR
0006c0  dd6e              BLE      |L10.1952|
;;;553    								{
;;;554    									
;;;555    									eGFX_DrawHline(&eGFX_BackBuffer,                       
0006c2  4978              LDR      r1,|L10.2212|
0006c4  9811              LDR      r0,[sp,#0x44]
0006c6  eb010080          ADD      r0,r1,r0,LSL #2
0006ca  ed900a00          VLDR     s0,[r0,#0]
0006ce  eef20a08          VMOV.F32 s1,#12.00000000
0006d2  ee801a20          VDIV.F32 s2,s0,s1
0006d6  4875              LDR      r0,|L10.2220|
0006d8  ed900a00          VLDR     s0,[r0,#0]
0006dc  ee210a00          VMUL.F32 s0,s2,s0
0006e0  ed8d0a01          VSTR     s0,[sp,#4]
0006e4  9801              LDR      r0,[sp,#4]
0006e6  f7fffffe          BL       __aeabi_f2d
0006ea  e9cd0104          STRD     r0,r1,[sp,#0x10]
0006ee  980f              LDR      r0,[sp,#0x3c]
0006f0  f7fffffe          BL       __aeabi_f2d
0006f4  ed1f0bad          VLDR     d0,|L10.1092|
0006f8  ec532b10          VMOV     r2,r3,d0
0006fc  e9cd0100          STRD     r0,r1,[sp,#0]
000700  ed9d0b00          VLDR     d0,[sp,#0]
000704  ec510b10          VMOV     r0,r1,d0
000708  f7fffffe          BL       __aeabi_dadd
00070c  e9cd0102          STRD     r0,r1,[sp,#8]
000710  ed9d0b04          VLDR     d0,[sp,#0x10]
000714  ec532b10          VMOV     r2,r3,d0
000718  ed9d0b02          VLDR     d0,[sp,#8]
00071c  ec510b10          VMOV     r0,r1,d0
000720  f7fffffe          BL       __aeabi_dsub
000724  e9cd0106          STRD     r0,r1,[sp,#0x18]
000728  ed9d0b06          VLDR     d0,[sp,#0x18]
00072c  ec510b10          VMOV     r0,r1,d0
000730  f7fffffe          BL       __aeabi_d2iz
000734  b200              SXTH     r0,r0
000736  900a              STR      r0,[sp,#0x28]
000738  9810              LDR      r0,[sp,#0x40]
00073a  f7fffffe          BL       __aeabi_f2d
00073e  ed1f0bbd          VLDR     d0,|L10.1100|
000742  ec532b10          VMOV     r2,r3,d0
000746  e9cd0104          STRD     r0,r1,[sp,#0x10]
00074a  ed9d0b04          VLDR     d0,[sp,#0x10]
00074e  ec510b10          VMOV     r0,r1,d0
000752  f7fffffe          BL       __aeabi_dadd
000756  e9cd0106          STRD     r0,r1,[sp,#0x18]
00075a  ed9d0b06          VLDR     d0,[sp,#0x18]
00075e  ec510b10          VMOV     r0,r1,d0
000762  f7fffffe          BL       __aeabi_d2iz
000766  b200              SXTH     r0,r0
000768  9009              STR      r0,[sp,#0x24]
00076a  9810              LDR      r0,[sp,#0x40]
00076c  f7fffffe          BL       __aeabi_f2d
000770  ed1f0bca          VLDR     d0,|L10.1100|
000774  ec532b10          VMOV     r2,r3,d0
000778  e9cd0104          STRD     r0,r1,[sp,#0x10]
00077c  ed9d0b04          VLDR     d0,[sp,#0x10]
000780  ec510b10          VMOV     r0,r1,d0
000784  f7fffffe          BL       __aeabi_dadd
000788  e9cd0106          STRD     r0,r1,[sp,#0x18]
00078c  ed9d0b06          VLDR     d0,[sp,#0x18]
000790  ec510b10          VMOV     r0,r1,d0
000794  f7fffffe          BL       __aeabi_d2iz
000798  b200              SXTH     r0,r0
00079a  9008              STR      r0,[sp,#0x20]
00079c  4845              LDR      r0,|L10.2228|
00079e  e000              B        |L10.1954|
                  |L10.1952|
0007a0  e25f              B        |L10.3170|
                  |L10.1954|
0007a2  9000              STR      r0,[sp,#0]
0007a4  483e              LDR      r0,|L10.2208|
0007a6  a908              ADD      r1,sp,#0x20
0007a8  c90e              LDM      r1,{r1-r3}
0007aa  f7fffffe          BL       eGFX_DrawHline
;;;556    												Point1+eGFX_PHYSICAL_SCREEN_SIZE_X/2.0,
;;;557    												Point1+eGFX_PHYSICAL_SCREEN_SIZE_X/2.0,									
;;;558    												Point2+eGFX_PHYSICAL_SCREEN_SIZE_Y/2.0 - FFT_PowerSpectrum[i]/12*MidSliderValue,																					
;;;559    												eGFX_RGB888_TO_RGB565(255,255,0)  												
;;;560    												);	
;;;561    								eGFX_DrawHline(&eGFX_BackBuffer,                       
0007ae  493d              LDR      r1,|L10.2212|
0007b0  9811              LDR      r0,[sp,#0x44]
0007b2  eb010080          ADD      r0,r1,r0,LSL #2
0007b6  ed901a00          VLDR     s2,[r0,#0]
0007ba  eeb20a08          VMOV.F32 s0,#12.00000000
0007be  eec10a00          VDIV.F32 s1,s2,s0
0007c2  483a              LDR      r0,|L10.2220|
0007c4  ed900a00          VLDR     s0,[r0,#0]
0007c8  ee200a80          VMUL.F32 s0,s1,s0
0007cc  ed8d0a01          VSTR     s0,[sp,#4]
0007d0  9801              LDR      r0,[sp,#4]
0007d2  f7fffffe          BL       __aeabi_f2d
0007d6  e9cd0104          STRD     r0,r1,[sp,#0x10]
0007da  980f              LDR      r0,[sp,#0x3c]
0007dc  f7fffffe          BL       __aeabi_f2d
0007e0  ed1f0be8          VLDR     d0,|L10.1092|
0007e4  ec532b10          VMOV     r2,r3,d0
0007e8  e9cd0100          STRD     r0,r1,[sp,#0]
0007ec  ed9d0b00          VLDR     d0,[sp,#0]
0007f0  ec510b10          VMOV     r0,r1,d0
0007f4  f7fffffe          BL       __aeabi_dadd
0007f8  e9cd0102          STRD     r0,r1,[sp,#8]
0007fc  ed9d0b04          VLDR     d0,[sp,#0x10]
000800  ec532b10          VMOV     r2,r3,d0
000804  ed9d0b02          VLDR     d0,[sp,#8]
000808  ec510b10          VMOV     r0,r1,d0
00080c  f7fffffe          BL       __aeabi_dsub
000810  e9cd0106          STRD     r0,r1,[sp,#0x18]
000814  ed9d0b06          VLDR     d0,[sp,#0x18]
000818  ec510b10          VMOV     r0,r1,d0
00081c  f7fffffe          BL       __aeabi_d2iz
000820  b200              SXTH     r0,r0
000822  900a              STR      r0,[sp,#0x28]
000824  980f              LDR      r0,[sp,#0x3c]
000826  f7fffffe          BL       __aeabi_f2d
00082a  ed1f0bf8          VLDR     d0,|L10.1100|
00082e  ec532b10          VMOV     r2,r3,d0
000832  e9cd0104          STRD     r0,r1,[sp,#0x10]
000836  ed9d0b04          VLDR     d0,[sp,#0x10]
00083a  ec510b10          VMOV     r0,r1,d0
00083e  f7fffffe          BL       __aeabi_dadd
000842  e9cd0106          STRD     r0,r1,[sp,#0x18]
000846  e000              B        |L10.2122|
                  |L10.2120|
000848  e3fe              B        |L10.4168|
                  |L10.2122|
00084a  ed9d0b06          VLDR     d0,[sp,#0x18]
00084e  ec510b10          VMOV     r0,r1,d0
000852  f7fffffe          BL       __aeabi_d2iz
000856  b200              SXTH     r0,r0
000858  9009              STR      r0,[sp,#0x24]
00085a  9810              LDR      r0,[sp,#0x40]
00085c  f7fffffe          BL       __aeabi_f2d
000860  ed9f0b15          VLDR     d0,|L10.2232|
000864  ec532b10          VMOV     r2,r3,d0
000868  e9cd0104          STRD     r0,r1,[sp,#0x10]
00086c  ed9d0b04          VLDR     d0,[sp,#0x10]
000870  ec510b10          VMOV     r0,r1,d0
000874  f7fffffe          BL       __aeabi_dadd
000878  e9cd0106          STRD     r0,r1,[sp,#0x18]
00087c  ed9d0b06          VLDR     d0,[sp,#0x18]
000880  ec510b10          VMOV     r0,r1,d0
000884  f7fffffe          BL       __aeabi_d2iz
000888  b200              SXTH     r0,r0
00088a  9008              STR      r0,[sp,#0x20]
00088c  4809              LDR      r0,|L10.2228|
00088e  9000              STR      r0,[sp,#0]
000890  4803              LDR      r0,|L10.2208|
000892  a908              ADD      r1,sp,#0x20
000894  c90e              LDM      r1,{r1-r3}
000896  f7fffffe          BL       eGFX_DrawHline
;;;562    												Point1+eGFX_PHYSICAL_SCREEN_SIZE_X/2.0,
;;;563    												Point2+eGFX_PHYSICAL_SCREEN_SIZE_X/2.0,									
;;;564    												Point2+eGFX_PHYSICAL_SCREEN_SIZE_Y/2.0 - FFT_PowerSpectrum[i]/12*MidSliderValue,																					
;;;565    												eGFX_RGB888_TO_RGB565(255,255,0)  												
;;;566    												);				
;;;567    								eGFX_DrawHline(&eGFX_BackBuffer,                       
00089a  4902              LDR      r1,|L10.2212|
00089c  9811              LDR      r0,[sp,#0x44]
00089e  e00f              B        |L10.2240|
                  |L10.2208|
                          DCD      eGFX_BackBuffer
                  |L10.2212|
                          DCD      FFT_PowerSpectrum
                  |L10.2216|
                          DCD      BassSliderValue
                  |L10.2220|
                          DCD      MidSliderValue
                  |L10.2224|
0008b0  43c80000          DCFS     0x43c80000 ; 400
                  |L10.2228|
                          DCD      0x0001ffe0
                  |L10.2232|
0008b8  00000000          DCFD     0x406e000000000000 ; 240
0008bc  406e0000
                  |L10.2240|
0008c0  eb010080          ADD      r0,r1,r0,LSL #2
0008c4  ed901a00          VLDR     s2,[r0,#0]
0008c8  eef20a08          VMOV.F32 s1,#12.00000000
0008cc  ee810a20          VDIV.F32 s0,s2,s1
0008d0  48fe              LDR      r0,|L10.3276|
0008d2  edd00a00          VLDR     s1,[r0,#0]
0008d6  ee200a20          VMUL.F32 s0,s0,s1
0008da  ed8d0a01          VSTR     s0,[sp,#4]
0008de  9801              LDR      r0,[sp,#4]
0008e0  f7fffffe          BL       __aeabi_f2d
0008e4  e9cd0104          STRD     r0,r1,[sp,#0x10]
0008e8  980f              LDR      r0,[sp,#0x3c]
0008ea  f7fffffe          BL       __aeabi_f2d
0008ee  ed9f0bf8          VLDR     d0,|L10.3280|
0008f2  ec532b10          VMOV     r2,r3,d0
0008f6  e9cd0100          STRD     r0,r1,[sp,#0]
0008fa  ed9d0b00          VLDR     d0,[sp,#0]
0008fe  ec510b10          VMOV     r0,r1,d0
000902  e000              B        |L10.2310|
                  |L10.2308|
000904  e3fe              B        |L10.4356|
                  |L10.2310|
000906  f7fffffe          BL       __aeabi_dadd
00090a  e9cd0102          STRD     r0,r1,[sp,#8]
00090e  ed9d0b04          VLDR     d0,[sp,#0x10]
000912  ec532b10          VMOV     r2,r3,d0
000916  ed9d0b02          VLDR     d0,[sp,#8]
00091a  ec510b10          VMOV     r0,r1,d0
00091e  f7fffffe          BL       __aeabi_dsub
000922  e9cd0106          STRD     r0,r1,[sp,#0x18]
000926  ed9d0b06          VLDR     d0,[sp,#0x18]
00092a  ec510b10          VMOV     r0,r1,d0
00092e  f7fffffe          BL       __aeabi_d2iz
000932  b200              SXTH     r0,r0
000934  900a              STR      r0,[sp,#0x28]
000936  9810              LDR      r0,[sp,#0x40]
000938  f7fffffe          BL       __aeabi_f2d
00093c  ed9f0be6          VLDR     d0,|L10.3288|
000940  ec532b10          VMOV     r2,r3,d0
000944  e9cd0104          STRD     r0,r1,[sp,#0x10]
000948  ed9d0b04          VLDR     d0,[sp,#0x10]
00094c  ec510b10          VMOV     r0,r1,d0
000950  f7fffffe          BL       __aeabi_dadd
000954  e9cd0106          STRD     r0,r1,[sp,#0x18]
000958  ed9d0b06          VLDR     d0,[sp,#0x18]
00095c  ec510b10          VMOV     r0,r1,d0
000960  f7fffffe          BL       __aeabi_d2iz
000964  b200              SXTH     r0,r0
000966  9009              STR      r0,[sp,#0x24]
000968  980f              LDR      r0,[sp,#0x3c]
00096a  f7fffffe          BL       __aeabi_f2d
00096e  ed9f0bda          VLDR     d0,|L10.3288|
000972  ec532b10          VMOV     r2,r3,d0
000976  e9cd0104          STRD     r0,r1,[sp,#0x10]
00097a  ed9d0b04          VLDR     d0,[sp,#0x10]
00097e  ec510b10          VMOV     r0,r1,d0
000982  f7fffffe          BL       __aeabi_dadd
000986  e9cd0106          STRD     r0,r1,[sp,#0x18]
00098a  ed9d0b06          VLDR     d0,[sp,#0x18]
00098e  ec510b10          VMOV     r0,r1,d0
000992  f7fffffe          BL       __aeabi_d2iz
000996  b200              SXTH     r0,r0
000998  9008              STR      r0,[sp,#0x20]
00099a  48d1              LDR      r0,|L10.3296|
00099c  9000              STR      r0,[sp,#0]
00099e  48d1              LDR      r0,|L10.3300|
0009a0  a908              ADD      r1,sp,#0x20
0009a2  c90e              LDM      r1,{r1-r3}
0009a4  f7fffffe          BL       eGFX_DrawHline
;;;568    												Point2+eGFX_PHYSICAL_SCREEN_SIZE_X/1.33,
;;;569    												Point1+eGFX_PHYSICAL_SCREEN_SIZE_X/1.33,									
;;;570    												Point2+eGFX_PHYSICAL_SCREEN_SIZE_Y/2.0 - FFT_PowerSpectrum[i]/12*MidSliderValue,																					
;;;571    												eGFX_RGB888_TO_RGB565(255,255,0)  												
;;;572    												);				
;;;573    								eGFX_DrawHline(&eGFX_BackBuffer,                       
0009a8  49cf              LDR      r1,|L10.3304|
0009aa  9811              LDR      r0,[sp,#0x44]
0009ac  eb010080          ADD      r0,r1,r0,LSL #2
0009b0  edd00a00          VLDR     s1,[r0,#0]
0009b4  eeb21a08          VMOV.F32 s2,#12.00000000
0009b8  ee800a81          VDIV.F32 s0,s1,s2
0009bc  48c3              LDR      r0,|L10.3276|
0009be  edd00a00          VLDR     s1,[r0,#0]
0009c2  ee200a20          VMUL.F32 s0,s0,s1
0009c6  ed8d0a01          VSTR     s0,[sp,#4]
0009ca  9801              LDR      r0,[sp,#4]
0009cc  f7fffffe          BL       __aeabi_f2d
0009d0  e9cd0104          STRD     r0,r1,[sp,#0x10]
0009d4  980d              LDR      r0,[sp,#0x34]
0009d6  f7fffffe          BL       __aeabi_f2d
0009da  ed9f0bbd          VLDR     d0,|L10.3280|
0009de  ec532b10          VMOV     r2,r3,d0
0009e2  e9cd0100          STRD     r0,r1,[sp,#0]
0009e6  ed9d0b00          VLDR     d0,[sp,#0]
0009ea  ec510b10          VMOV     r0,r1,d0
0009ee  f7fffffe          BL       __aeabi_dadd
0009f2  e9cd0102          STRD     r0,r1,[sp,#8]
0009f6  ed9d0b04          VLDR     d0,[sp,#0x10]
0009fa  ec532b10          VMOV     r2,r3,d0
0009fe  ed9d0b02          VLDR     d0,[sp,#8]
000a02  ec510b10          VMOV     r0,r1,d0
000a06  f7fffffe          BL       __aeabi_dsub
000a0a  e9cd0106          STRD     r0,r1,[sp,#0x18]
000a0e  ed9d0b06          VLDR     d0,[sp,#0x18]
000a12  ec510b10          VMOV     r0,r1,d0
000a16  f7fffffe          BL       __aeabi_d2iz
000a1a  b200              SXTH     r0,r0
000a1c  900a              STR      r0,[sp,#0x28]
000a1e  980c              LDR      r0,[sp,#0x30]
000a20  f7fffffe          BL       __aeabi_f2d
000a24  ed9f0bac          VLDR     d0,|L10.3288|
000a28  ec532b10          VMOV     r2,r3,d0
000a2c  e9cd0104          STRD     r0,r1,[sp,#0x10]
000a30  ed9d0b04          VLDR     d0,[sp,#0x10]
000a34  ec510b10          VMOV     r0,r1,d0
000a38  f7fffffe          BL       __aeabi_dadd
000a3c  e9cd0106          STRD     r0,r1,[sp,#0x18]
000a40  ed9d0b06          VLDR     d0,[sp,#0x18]
000a44  ec510b10          VMOV     r0,r1,d0
000a48  f7fffffe          BL       __aeabi_d2iz
000a4c  b200              SXTH     r0,r0
000a4e  9009              STR      r0,[sp,#0x24]
000a50  980d              LDR      r0,[sp,#0x34]
000a52  f7fffffe          BL       __aeabi_f2d
000a56  ed9f0ba0          VLDR     d0,|L10.3288|
000a5a  ec532b10          VMOV     r2,r3,d0
000a5e  e9cd0104          STRD     r0,r1,[sp,#0x10]
000a62  ed9d0b04          VLDR     d0,[sp,#0x10]
000a66  ec510b10          VMOV     r0,r1,d0
000a6a  f7fffffe          BL       __aeabi_dadd
000a6e  e9cd0106          STRD     r0,r1,[sp,#0x18]
000a72  ed9d0b06          VLDR     d0,[sp,#0x18]
000a76  ec510b10          VMOV     r0,r1,d0
000a7a  f7fffffe          BL       __aeabi_d2iz
000a7e  b200              SXTH     r0,r0
000a80  9008              STR      r0,[sp,#0x20]
000a82  4897              LDR      r0,|L10.3296|
000a84  9000              STR      r0,[sp,#0]
000a86  4897              LDR      r0,|L10.3300|
000a88  a908              ADD      r1,sp,#0x20
000a8a  c90e              LDM      r1,{r1-r3}
000a8c  f7fffffe          BL       eGFX_DrawHline
;;;574    												Point4+eGFX_PHYSICAL_SCREEN_SIZE_X/1.33,
;;;575    												Point5+eGFX_PHYSICAL_SCREEN_SIZE_X/1.33,									
;;;576    												Point4+eGFX_PHYSICAL_SCREEN_SIZE_Y/2.0 - FFT_PowerSpectrum[i]/12*MidSliderValue,																					
;;;577    												eGFX_RGB888_TO_RGB565(255,255,0)  												
;;;578    												);	
;;;579    								eGFX_DrawHline(&eGFX_BackBuffer,                       
000a90  4995              LDR      r1,|L10.3304|
000a92  9811              LDR      r0,[sp,#0x44]
000a94  eb010080          ADD      r0,r1,r0,LSL #2
000a98  ed900a00          VLDR     s0,[r0,#0]
000a9c  eeb21a08          VMOV.F32 s2,#12.00000000
000aa0  eec00a01          VDIV.F32 s1,s0,s2
000aa4  4889              LDR      r0,|L10.3276|
000aa6  ed900a00          VLDR     s0,[r0,#0]
000aaa  ee200a80          VMUL.F32 s0,s1,s0
000aae  ed8d0a01          VSTR     s0,[sp,#4]
000ab2  9801              LDR      r0,[sp,#4]
000ab4  f7fffffe          BL       __aeabi_f2d
000ab8  e9cd0104          STRD     r0,r1,[sp,#0x10]
000abc  980d              LDR      r0,[sp,#0x34]
000abe  f7fffffe          BL       __aeabi_f2d
000ac2  ed9f0b83          VLDR     d0,|L10.3280|
000ac6  ec532b10          VMOV     r2,r3,d0
000aca  e9cd0100          STRD     r0,r1,[sp,#0]
000ace  ed9d0b00          VLDR     d0,[sp,#0]
000ad2  ec510b10          VMOV     r0,r1,d0
000ad6  f7fffffe          BL       __aeabi_dadd
000ada  e9cd0102          STRD     r0,r1,[sp,#8]
000ade  ed9d0b04          VLDR     d0,[sp,#0x10]
000ae2  ec532b10          VMOV     r2,r3,d0
000ae6  ed9d0b02          VLDR     d0,[sp,#8]
000aea  ec510b10          VMOV     r0,r1,d0
000aee  f7fffffe          BL       __aeabi_dsub
000af2  e9cd0106          STRD     r0,r1,[sp,#0x18]
000af6  ed9d0b06          VLDR     d0,[sp,#0x18]
000afa  ec510b10          VMOV     r0,r1,d0
000afe  f7fffffe          BL       __aeabi_d2iz
000b02  b200              SXTH     r0,r0
000b04  900a              STR      r0,[sp,#0x28]
000b06  980c              LDR      r0,[sp,#0x30]
000b08  f7fffffe          BL       __aeabi_f2d
000b0c  ed9f0b77          VLDR     d0,|L10.3308|
000b10  ec532b10          VMOV     r2,r3,d0
000b14  e9cd0104          STRD     r0,r1,[sp,#0x10]
000b18  ed9d0b04          VLDR     d0,[sp,#0x10]
000b1c  ec510b10          VMOV     r0,r1,d0
000b20  f7fffffe          BL       __aeabi_dadd
000b24  e9cd0106          STRD     r0,r1,[sp,#0x18]
000b28  ed9d0b06          VLDR     d0,[sp,#0x18]
000b2c  ec510b10          VMOV     r0,r1,d0
000b30  f7fffffe          BL       __aeabi_d2iz
000b34  b200              SXTH     r0,r0
000b36  9009              STR      r0,[sp,#0x24]
000b38  980d              LDR      r0,[sp,#0x34]
000b3a  f7fffffe          BL       __aeabi_f2d
000b3e  ed9f0b6b          VLDR     d0,|L10.3308|
000b42  ec532b10          VMOV     r2,r3,d0
000b46  e9cd0104          STRD     r0,r1,[sp,#0x10]
000b4a  ed9d0b04          VLDR     d0,[sp,#0x10]
000b4e  ec510b10          VMOV     r0,r1,d0
000b52  f7fffffe          BL       __aeabi_dadd
000b56  e9cd0106          STRD     r0,r1,[sp,#0x18]
000b5a  ed9d0b06          VLDR     d0,[sp,#0x18]
000b5e  ec510b10          VMOV     r0,r1,d0
000b62  f7fffffe          BL       __aeabi_d2iz
000b66  b200              SXTH     r0,r0
000b68  9008              STR      r0,[sp,#0x20]
000b6a  485d              LDR      r0,|L10.3296|
000b6c  9000              STR      r0,[sp,#0]
000b6e  485d              LDR      r0,|L10.3300|
000b70  a908              ADD      r1,sp,#0x20
000b72  c90e              LDM      r1,{r1-r3}
000b74  f7fffffe          BL       eGFX_DrawHline
;;;580    												Point4+eGFX_PHYSICAL_SCREEN_SIZE_X/4.0,
;;;581    												Point5+eGFX_PHYSICAL_SCREEN_SIZE_X/4.0,									
;;;582    												Point4+eGFX_PHYSICAL_SCREEN_SIZE_Y/2.0 - FFT_PowerSpectrum[i]/12*MidSliderValue,																					
;;;583    												eGFX_RGB888_TO_RGB565(255,255,0)  												
;;;584    												);	
;;;585    								eGFX_DrawHline(&eGFX_BackBuffer,                       
000b78  495b              LDR      r1,|L10.3304|
000b7a  9811              LDR      r0,[sp,#0x44]
000b7c  eb010080          ADD      r0,r1,r0,LSL #2
000b80  ed900a00          VLDR     s0,[r0,#0]
000b84  eeb21a08          VMOV.F32 s2,#12.00000000
000b88  eec00a01          VDIV.F32 s1,s0,s2
000b8c  484f              LDR      r0,|L10.3276|
000b8e  ed900a00          VLDR     s0,[r0,#0]
000b92  ee200a80          VMUL.F32 s0,s1,s0
000b96  ed8d0a01          VSTR     s0,[sp,#4]
000b9a  9801              LDR      r0,[sp,#4]
000b9c  f7fffffe          BL       __aeabi_f2d
000ba0  e9cd0104          STRD     r0,r1,[sp,#0x10]
000ba4  980d              LDR      r0,[sp,#0x34]
000ba6  f7fffffe          BL       __aeabi_f2d
000baa  ed9f0b49          VLDR     d0,|L10.3280|
000bae  ec532b10          VMOV     r2,r3,d0
000bb2  e9cd0100          STRD     r0,r1,[sp,#0]
000bb6  ed9d0b00          VLDR     d0,[sp,#0]
000bba  ec510b10          VMOV     r0,r1,d0
000bbe  f7fffffe          BL       __aeabi_dadd
000bc2  e9cd0102          STRD     r0,r1,[sp,#8]
000bc6  ed9d0b04          VLDR     d0,[sp,#0x10]
000bca  ec532b10          VMOV     r2,r3,d0
000bce  ed9d0b02          VLDR     d0,[sp,#8]
000bd2  ec510b10          VMOV     r0,r1,d0
000bd6  f7fffffe          BL       __aeabi_dsub
000bda  e9cd0106          STRD     r0,r1,[sp,#0x18]
000bde  ed9d0b06          VLDR     d0,[sp,#0x18]
000be2  ec510b10          VMOV     r0,r1,d0
000be6  f7fffffe          BL       __aeabi_d2iz
000bea  b200              SXTH     r0,r0
000bec  900a              STR      r0,[sp,#0x28]
000bee  980c              LDR      r0,[sp,#0x30]
000bf0  f7fffffe          BL       __aeabi_f2d
000bf4  ed9f0b3d          VLDR     d0,|L10.3308|
000bf8  ec532b10          VMOV     r2,r3,d0
000bfc  e9cd0104          STRD     r0,r1,[sp,#0x10]
000c00  ed9d0b04          VLDR     d0,[sp,#0x10]
000c04  ec510b10          VMOV     r0,r1,d0
000c08  f7fffffe          BL       __aeabi_dadd
000c0c  e9cd0106          STRD     r0,r1,[sp,#0x18]
000c10  ed9d0b06          VLDR     d0,[sp,#0x18]
000c14  ec510b10          VMOV     r0,r1,d0
000c18  f7fffffe          BL       __aeabi_d2iz
000c1c  b200              SXTH     r0,r0
000c1e  9009              STR      r0,[sp,#0x24]
000c20  980d              LDR      r0,[sp,#0x34]
000c22  f7fffffe          BL       __aeabi_f2d
000c26  ed9f0b31          VLDR     d0,|L10.3308|
000c2a  ec532b10          VMOV     r2,r3,d0
000c2e  e9cd0104          STRD     r0,r1,[sp,#0x10]
000c32  ed9d0b04          VLDR     d0,[sp,#0x10]
000c36  ec510b10          VMOV     r0,r1,d0
000c3a  f7fffffe          BL       __aeabi_dadd
000c3e  e9cd0106          STRD     r0,r1,[sp,#0x18]
000c42  ed9d0b06          VLDR     d0,[sp,#0x18]
000c46  ec510b10          VMOV     r0,r1,d0
000c4a  f7fffffe          BL       __aeabi_d2iz
000c4e  b200              SXTH     r0,r0
000c50  9008              STR      r0,[sp,#0x20]
000c52  4823              LDR      r0,|L10.3296|
000c54  9000              STR      r0,[sp,#0]
000c56  4823              LDR      r0,|L10.3300|
000c58  a908              ADD      r1,sp,#0x20
000c5a  c90e              LDM      r1,{r1-r3}
000c5c  f7fffffe          BL       eGFX_DrawHline
                  |L10.3168|
000c60  e2f9              B        |L10.4694|
                  |L10.3170|
;;;586    												Point4+eGFX_PHYSICAL_SCREEN_SIZE_X/4.0,
;;;587    												Point5+eGFX_PHYSICAL_SCREEN_SIZE_X/4.0,									
;;;588    												Point4+eGFX_PHYSICAL_SCREEN_SIZE_Y/2.0 - FFT_PowerSpectrum[i]/12*MidSliderValue,																					
;;;589    												eGFX_RGB888_TO_RGB565(255,255,0)  												
;;;590    												);	
;;;591    											}
;;;592    							else if( i >= (400/TrebleSliderValue))
000c62  4824              LDR      r0,|L10.3316|
000c64  ed900a00          VLDR     s0,[r0,#0]
000c68  ed1f1aef          VLDR     s2,|L10.2224|
000c6c  eec10a00          VDIV.F32 s1,s2,s0
000c70  ed9d0a11          VLDR     s0,[sp,#0x44]
000c74  eeb80ac0          VCVT.F32.S32 s0,s0
000c78  eef40ac0          VCMPE.F32 s1,s0
000c7c  eef1fa10          VMRS     APSR_nzcv,FPSCR
000c80  d8ee              BHI      |L10.3168|
;;;593    								{
;;;594    									eGFX_DrawHline(&eGFX_BackBuffer,                       
000c82  4919              LDR      r1,|L10.3304|
000c84  9811              LDR      r0,[sp,#0x44]
000c86  eb010080          ADD      r0,r1,r0,LSL #2
000c8a  ed900a00          VLDR     s0,[r0,#0]
000c8e  eef20a0e          VMOV.F32 s1,#15.00000000
000c92  ee801a20          VDIV.F32 s2,s0,s1
000c96  4817              LDR      r0,|L10.3316|
000c98  ed900a00          VLDR     s0,[r0,#0]
000c9c  ee210a00          VMUL.F32 s0,s2,s0
000ca0  ed8d0a01          VSTR     s0,[sp,#4]
000ca4  9801              LDR      r0,[sp,#4]
000ca6  f7fffffe          BL       __aeabi_f2d
000caa  e9cd0104          STRD     r0,r1,[sp,#0x10]
000cae  980f              LDR      r0,[sp,#0x3c]
000cb0  f7fffffe          BL       __aeabi_f2d
000cb4  ed9f0b06          VLDR     d0,|L10.3280|
000cb8  ec532b10          VMOV     r2,r3,d0
000cbc  e9cd0100          STRD     r0,r1,[sp,#0]
000cc0  ed9d0b00          VLDR     d0,[sp,#0]
000cc4  ec510b10          VMOV     r0,r1,d0
000cc8  e016              B        |L10.3320|
000cca  0000              DCW      0x0000
                  |L10.3276|
                          DCD      MidSliderValue
                  |L10.3280|
000cd0  00000000          DCFD     0x4061000000000000 ; 136
000cd4  40610000
                  |L10.3288|
000cd8  a39be8e7          DCFD     0x40768e6fa39be8e7 ; 360.90225563909775
000cdc  40768e6f
                  |L10.3296|
                          DCD      0x0001ffe0
                  |L10.3300|
                          DCD      eGFX_BackBuffer
                  |L10.3304|
                          DCD      FFT_PowerSpectrum
                  |L10.3308|
000cec  00000000          DCFD     0x405e000000000000 ; 120
000cf0  405e0000
                  |L10.3316|
                          DCD      TrebleSliderValue
                  |L10.3320|
000cf8  f7fffffe          BL       __aeabi_dadd
000cfc  e9cd0102          STRD     r0,r1,[sp,#8]
000d00  ed9d0b04          VLDR     d0,[sp,#0x10]
000d04  ec532b10          VMOV     r2,r3,d0
000d08  ed9d0b02          VLDR     d0,[sp,#8]
000d0c  ec510b10          VMOV     r0,r1,d0
000d10  f7fffffe          BL       __aeabi_dsub
000d14  e9cd0106          STRD     r0,r1,[sp,#0x18]
000d18  ed9d0b06          VLDR     d0,[sp,#0x18]
000d1c  ec510b10          VMOV     r0,r1,d0
000d20  f7fffffe          BL       __aeabi_d2iz
000d24  b200              SXTH     r0,r0
000d26  900a              STR      r0,[sp,#0x28]
000d28  980f              LDR      r0,[sp,#0x3c]
000d2a  f7fffffe          BL       __aeabi_f2d
000d2e  ed9f0bfe          VLDR     d0,|L10.4392|
000d32  ec532b10          VMOV     r2,r3,d0
000d36  e9cd0104          STRD     r0,r1,[sp,#0x10]
000d3a  ed9d0b04          VLDR     d0,[sp,#0x10]
000d3e  ec510b10          VMOV     r0,r1,d0
000d42  f7fffffe          BL       __aeabi_dadd
000d46  e9cd0106          STRD     r0,r1,[sp,#0x18]
000d4a  ed9d0b06          VLDR     d0,[sp,#0x18]
000d4e  ec510b10          VMOV     r0,r1,d0
000d52  f7fffffe          BL       __aeabi_d2iz
000d56  b200              SXTH     r0,r0
000d58  9009              STR      r0,[sp,#0x24]
000d5a  9810              LDR      r0,[sp,#0x40]
000d5c  f7fffffe          BL       __aeabi_f2d
000d60  ed9f0bf1          VLDR     d0,|L10.4392|
000d64  ec532b10          VMOV     r2,r3,d0
000d68  e9cd0104          STRD     r0,r1,[sp,#0x10]
000d6c  ed9d0b04          VLDR     d0,[sp,#0x10]
000d70  ec510b10          VMOV     r0,r1,d0
000d74  f7fffffe          BL       __aeabi_dadd
000d78  e9cd0106          STRD     r0,r1,[sp,#0x18]
000d7c  ed9d0b06          VLDR     d0,[sp,#0x18]
000d80  ec510b10          VMOV     r0,r1,d0
000d84  f7fffffe          BL       __aeabi_d2iz
000d88  b200              SXTH     r0,r0
000d8a  9008              STR      r0,[sp,#0x20]
000d8c  f44f30fc          MOV      r0,#0x1f800
000d90  9000              STR      r0,[sp,#0]
000d92  48e7              LDR      r0,|L10.4400|
000d94  a908              ADD      r1,sp,#0x20
000d96  c90e              LDM      r1,{r1-r3}
000d98  f7fffffe          BL       eGFX_DrawHline
;;;595    												Point1+eGFX_PHYSICAL_SCREEN_SIZE_X/2.0,
;;;596    												Point2+eGFX_PHYSICAL_SCREEN_SIZE_X/2.0,									
;;;597    												Point2+eGFX_PHYSICAL_SCREEN_SIZE_Y/2.0 - FFT_PowerSpectrum[i]/15*TrebleSliderValue,																					
;;;598    												eGFX_RGB888_TO_RGB565(255,0,0)  												
;;;599    												);	
;;;600    								eGFX_DrawHline(&eGFX_BackBuffer,                       
000d9c  49e5              LDR      r1,|L10.4404|
000d9e  9811              LDR      r0,[sp,#0x44]
000da0  eb010080          ADD      r0,r1,r0,LSL #2
000da4  edd00a00          VLDR     s1,[r0,#0]
000da8  eeb21a0e          VMOV.F32 s2,#15.00000000
000dac  ee800a81          VDIV.F32 s0,s1,s2
000db0  48e1              LDR      r0,|L10.4408|
000db2  edd00a00          VLDR     s1,[r0,#0]
000db6  ee200a20          VMUL.F32 s0,s0,s1
000dba  ed8d0a01          VSTR     s0,[sp,#4]
000dbe  9801              LDR      r0,[sp,#4]
000dc0  f7fffffe          BL       __aeabi_f2d
000dc4  e9cd0104          STRD     r0,r1,[sp,#0x10]
000dc8  980f              LDR      r0,[sp,#0x3c]
000dca  f7fffffe          BL       __aeabi_f2d
000dce  ed1f0b40          VLDR     d0,|L10.3280|
000dd2  ec532b10          VMOV     r2,r3,d0
000dd6  e9cd0100          STRD     r0,r1,[sp,#0]
000dda  ed9d0b00          VLDR     d0,[sp,#0]
000dde  ec510b10          VMOV     r0,r1,d0
000de2  f7fffffe          BL       __aeabi_dadd
000de6  e9cd0102          STRD     r0,r1,[sp,#8]
000dea  ed9d0b04          VLDR     d0,[sp,#0x10]
000dee  ec532b10          VMOV     r2,r3,d0
000df2  ed9d0b02          VLDR     d0,[sp,#8]
000df6  ec510b10          VMOV     r0,r1,d0
000dfa  f7fffffe          BL       __aeabi_dsub
000dfe  e9cd0106          STRD     r0,r1,[sp,#0x18]
000e02  ed9d0b06          VLDR     d0,[sp,#0x18]
000e06  ec510b10          VMOV     r0,r1,d0
000e0a  f7fffffe          BL       __aeabi_d2iz
000e0e  b200              SXTH     r0,r0
000e10  900a              STR      r0,[sp,#0x28]
000e12  980f              LDR      r0,[sp,#0x3c]
000e14  f7fffffe          BL       __aeabi_f2d
000e18  ed9f0bc3          VLDR     d0,|L10.4392|
000e1c  ec532b10          VMOV     r2,r3,d0
000e20  e9cd0104          STRD     r0,r1,[sp,#0x10]
000e24  ed9d0b04          VLDR     d0,[sp,#0x10]
000e28  ec510b10          VMOV     r0,r1,d0
000e2c  f7fffffe          BL       __aeabi_dadd
000e30  e9cd0106          STRD     r0,r1,[sp,#0x18]
000e34  ed9d0b06          VLDR     d0,[sp,#0x18]
000e38  ec510b10          VMOV     r0,r1,d0
000e3c  f7fffffe          BL       __aeabi_d2iz
000e40  b200              SXTH     r0,r0
000e42  9009              STR      r0,[sp,#0x24]
000e44  9810              LDR      r0,[sp,#0x40]
000e46  f7fffffe          BL       __aeabi_f2d
000e4a  ed9f0bb7          VLDR     d0,|L10.4392|
000e4e  ec532b10          VMOV     r2,r3,d0
000e52  e9cd0104          STRD     r0,r1,[sp,#0x10]
000e56  ed9d0b04          VLDR     d0,[sp,#0x10]
000e5a  ec510b10          VMOV     r0,r1,d0
000e5e  f7fffffe          BL       __aeabi_dadd
000e62  e9cd0106          STRD     r0,r1,[sp,#0x18]
000e66  ed9d0b06          VLDR     d0,[sp,#0x18]
000e6a  ec510b10          VMOV     r0,r1,d0
000e6e  f7fffffe          BL       __aeabi_d2iz
000e72  b200              SXTH     r0,r0
000e74  9008              STR      r0,[sp,#0x20]
000e76  f44f30fc          MOV      r0,#0x1f800
000e7a  9000              STR      r0,[sp,#0]
000e7c  48ac              LDR      r0,|L10.4400|
000e7e  a908              ADD      r1,sp,#0x20
000e80  c90e              LDM      r1,{r1-r3}
000e82  f7fffffe          BL       eGFX_DrawHline
;;;601    												Point1+eGFX_PHYSICAL_SCREEN_SIZE_X/2.0,
;;;602    												Point2+eGFX_PHYSICAL_SCREEN_SIZE_X/2.0,									
;;;603    												Point2+eGFX_PHYSICAL_SCREEN_SIZE_Y/2.0 - FFT_PowerSpectrum[i]/15*TrebleSliderValue,																					
;;;604    												eGFX_RGB888_TO_RGB565(255,0,0)  												
;;;605    												);				
;;;606    								eGFX_DrawHline(&eGFX_BackBuffer,                       
000e86  49ab              LDR      r1,|L10.4404|
000e88  9811              LDR      r0,[sp,#0x44]
000e8a  eb010080          ADD      r0,r1,r0,LSL #2
000e8e  ed900a00          VLDR     s0,[r0,#0]
000e92  eef20a0e          VMOV.F32 s1,#15.00000000
000e96  ee801a20          VDIV.F32 s2,s0,s1
000e9a  48a7              LDR      r0,|L10.4408|
000e9c  ed900a00          VLDR     s0,[r0,#0]
000ea0  ee210a00          VMUL.F32 s0,s2,s0
000ea4  ed8d0a01          VSTR     s0,[sp,#4]
000ea8  9801              LDR      r0,[sp,#4]
000eaa  f7fffffe          BL       __aeabi_f2d
000eae  e9cd0104          STRD     r0,r1,[sp,#0x10]
000eb2  980f              LDR      r0,[sp,#0x3c]
000eb4  f7fffffe          BL       __aeabi_f2d
000eb8  ed1f0b7b          VLDR     d0,|L10.3280|
000ebc  ec532b10          VMOV     r2,r3,d0
000ec0  e9cd0100          STRD     r0,r1,[sp,#0]
000ec4  ed9d0b00          VLDR     d0,[sp,#0]
000ec8  ec510b10          VMOV     r0,r1,d0
000ecc  f7fffffe          BL       __aeabi_dadd
000ed0  e9cd0102          STRD     r0,r1,[sp,#8]
000ed4  ed9d0b04          VLDR     d0,[sp,#0x10]
000ed8  ec532b10          VMOV     r2,r3,d0
000edc  ed9d0b02          VLDR     d0,[sp,#8]
000ee0  ec510b10          VMOV     r0,r1,d0
000ee4  f7fffffe          BL       __aeabi_dsub
000ee8  e9cd0106          STRD     r0,r1,[sp,#0x18]
000eec  ed9d0b06          VLDR     d0,[sp,#0x18]
000ef0  ec510b10          VMOV     r0,r1,d0
000ef4  f7fffffe          BL       __aeabi_d2iz
000ef8  b200              SXTH     r0,r0
000efa  900a              STR      r0,[sp,#0x28]
000efc  980f              LDR      r0,[sp,#0x3c]
000efe  f7fffffe          BL       __aeabi_f2d
000f02  ed1f0b8b          VLDR     d0,|L10.3288|
000f06  ec532b10          VMOV     r2,r3,d0
000f0a  e9cd0104          STRD     r0,r1,[sp,#0x10]
000f0e  ed9d0b04          VLDR     d0,[sp,#0x10]
000f12  ec510b10          VMOV     r0,r1,d0
000f16  f7fffffe          BL       __aeabi_dadd
000f1a  e9cd0106          STRD     r0,r1,[sp,#0x18]
000f1e  ed9d0b06          VLDR     d0,[sp,#0x18]
000f22  ec510b10          VMOV     r0,r1,d0
000f26  f7fffffe          BL       __aeabi_d2iz
000f2a  b200              SXTH     r0,r0
000f2c  9009              STR      r0,[sp,#0x24]
000f2e  9810              LDR      r0,[sp,#0x40]
000f30  f7fffffe          BL       __aeabi_f2d
000f34  ed1f0b98          VLDR     d0,|L10.3288|
000f38  ec532b10          VMOV     r2,r3,d0
000f3c  e9cd0104          STRD     r0,r1,[sp,#0x10]
000f40  ed9d0b04          VLDR     d0,[sp,#0x10]
000f44  ec510b10          VMOV     r0,r1,d0
000f48  f7fffffe          BL       __aeabi_dadd
000f4c  e9cd0106          STRD     r0,r1,[sp,#0x18]
000f50  ed9d0b06          VLDR     d0,[sp,#0x18]
000f54  ec510b10          VMOV     r0,r1,d0
000f58  f7fffffe          BL       __aeabi_d2iz
000f5c  b200              SXTH     r0,r0
000f5e  9008              STR      r0,[sp,#0x20]
000f60  f44f30fc          MOV      r0,#0x1f800
000f64  9000              STR      r0,[sp,#0]
000f66  4872              LDR      r0,|L10.4400|
000f68  a908              ADD      r1,sp,#0x20
000f6a  c90e              LDM      r1,{r1-r3}
000f6c  f7fffffe          BL       eGFX_DrawHline
;;;607    												Point1+eGFX_PHYSICAL_SCREEN_SIZE_X/1.33,
;;;608    												Point2+eGFX_PHYSICAL_SCREEN_SIZE_X/1.33,									
;;;609    												Point2+eGFX_PHYSICAL_SCREEN_SIZE_Y/2.0 - FFT_PowerSpectrum[i]/15*TrebleSliderValue,																					
;;;610    												eGFX_RGB888_TO_RGB565(255,0,0)  												
;;;611    												);				
;;;612    								eGFX_DrawHline(&eGFX_BackBuffer,                       
000f70  4970              LDR      r1,|L10.4404|
000f72  9811              LDR      r0,[sp,#0x44]
000f74  eb010080          ADD      r0,r1,r0,LSL #2
000f78  edd00a00          VLDR     s1,[r0,#0]
000f7c  eeb21a0e          VMOV.F32 s2,#15.00000000
000f80  ee800a81          VDIV.F32 s0,s1,s2
000f84  486c              LDR      r0,|L10.4408|
000f86  edd00a00          VLDR     s1,[r0,#0]
000f8a  ee200a20          VMUL.F32 s0,s0,s1
000f8e  ed8d0a01          VSTR     s0,[sp,#4]
000f92  9801              LDR      r0,[sp,#4]
000f94  f7fffffe          BL       __aeabi_f2d
000f98  e9cd0104          STRD     r0,r1,[sp,#0x10]
000f9c  980c              LDR      r0,[sp,#0x30]
000f9e  f7fffffe          BL       __aeabi_f2d
000fa2  ed1f0bb5          VLDR     d0,|L10.3280|
000fa6  ec532b10          VMOV     r2,r3,d0
000faa  e9cd0100          STRD     r0,r1,[sp,#0]
000fae  ed9d0b00          VLDR     d0,[sp,#0]
000fb2  ec510b10          VMOV     r0,r1,d0
000fb6  f7fffffe          BL       __aeabi_dadd
000fba  e9cd0102          STRD     r0,r1,[sp,#8]
000fbe  ed9d0b04          VLDR     d0,[sp,#0x10]
000fc2  ec532b10          VMOV     r2,r3,d0
000fc6  ed9d0b02          VLDR     d0,[sp,#8]
000fca  ec510b10          VMOV     r0,r1,d0
000fce  f7fffffe          BL       __aeabi_dsub
000fd2  e9cd0106          STRD     r0,r1,[sp,#0x18]
000fd6  ed9d0b06          VLDR     d0,[sp,#0x18]
000fda  ec510b10          VMOV     r0,r1,d0
000fde  f7fffffe          BL       __aeabi_d2iz
000fe2  b200              SXTH     r0,r0
000fe4  900a              STR      r0,[sp,#0x28]
000fe6  980c              LDR      r0,[sp,#0x30]
000fe8  f7fffffe          BL       __aeabi_f2d
000fec  ed1f0bc6          VLDR     d0,|L10.3288|
000ff0  ec532b10          VMOV     r2,r3,d0
000ff4  e9cd0104          STRD     r0,r1,[sp,#0x10]
000ff8  ed9d0b04          VLDR     d0,[sp,#0x10]
000ffc  ec510b10          VMOV     r0,r1,d0
001000  f7fffffe          BL       __aeabi_dadd
001004  e9cd0106          STRD     r0,r1,[sp,#0x18]
001008  ed9d0b06          VLDR     d0,[sp,#0x18]
00100c  ec510b10          VMOV     r0,r1,d0
001010  f7fffffe          BL       __aeabi_d2iz
001014  b200              SXTH     r0,r0
001016  9009              STR      r0,[sp,#0x24]
001018  980d              LDR      r0,[sp,#0x34]
00101a  f7fffffe          BL       __aeabi_f2d
00101e  ed1f0bd2          VLDR     d0,|L10.3288|
001022  ec532b10          VMOV     r2,r3,d0
001026  e9cd0104          STRD     r0,r1,[sp,#0x10]
00102a  ed9d0b04          VLDR     d0,[sp,#0x10]
00102e  ec510b10          VMOV     r0,r1,d0
001032  f7fffffe          BL       __aeabi_dadd
001036  e9cd0106          STRD     r0,r1,[sp,#0x18]
00103a  ed9d0b06          VLDR     d0,[sp,#0x18]
00103e  ec510b10          VMOV     r0,r1,d0
001042  f7fffffe          BL       __aeabi_d2iz
001046  e000              B        |L10.4170|
                  |L10.4168|
001048  e108              B        |L10.4700|
                  |L10.4170|
00104a  b200              SXTH     r0,r0
00104c  9008              STR      r0,[sp,#0x20]
00104e  f44f30fc          MOV      r0,#0x1f800
001052  9000              STR      r0,[sp,#0]
001054  4836              LDR      r0,|L10.4400|
001056  a908              ADD      r1,sp,#0x20
001058  c90e              LDM      r1,{r1-r3}
00105a  f7fffffe          BL       eGFX_DrawHline
;;;613    												Point4+eGFX_PHYSICAL_SCREEN_SIZE_X/1.33,
;;;614    												Point5+eGFX_PHYSICAL_SCREEN_SIZE_X/1.33,									
;;;615    												Point5+eGFX_PHYSICAL_SCREEN_SIZE_Y/2.0 - FFT_PowerSpectrum[i]/15*TrebleSliderValue,																					
;;;616    												eGFX_RGB888_TO_RGB565(255,0,0)  												
;;;617    												);				
;;;618    								eGFX_DrawHline(&eGFX_BackBuffer,                       
00105e  4935              LDR      r1,|L10.4404|
001060  9811              LDR      r0,[sp,#0x44]
001062  eb010080          ADD      r0,r1,r0,LSL #2
001066  ed900a00          VLDR     s0,[r0,#0]
00106a  eef20a0e          VMOV.F32 s1,#15.00000000
00106e  ee801a20          VDIV.F32 s2,s0,s1
001072  4831              LDR      r0,|L10.4408|
001074  ed900a00          VLDR     s0,[r0,#0]
001078  ee210a00          VMUL.F32 s0,s2,s0
00107c  ed8d0a01          VSTR     s0,[sp,#4]
001080  9801              LDR      r0,[sp,#4]
001082  f7fffffe          BL       __aeabi_f2d
001086  e9cd0104          STRD     r0,r1,[sp,#0x10]
00108a  980f              LDR      r0,[sp,#0x3c]
00108c  f7fffffe          BL       __aeabi_f2d
001090  ed1f0bf1          VLDR     d0,|L10.3280|
001094  ec532b10          VMOV     r2,r3,d0
001098  e9cd0100          STRD     r0,r1,[sp,#0]
00109c  ed9d0b00          VLDR     d0,[sp,#0]
0010a0  ec510b10          VMOV     r0,r1,d0
0010a4  f7fffffe          BL       __aeabi_dadd
0010a8  e9cd0102          STRD     r0,r1,[sp,#8]
0010ac  ed9d0b04          VLDR     d0,[sp,#0x10]
0010b0  ec532b10          VMOV     r2,r3,d0
0010b4  ed9d0b02          VLDR     d0,[sp,#8]
0010b8  ec510b10          VMOV     r0,r1,d0
0010bc  f7fffffe          BL       __aeabi_dsub
0010c0  e9cd0106          STRD     r0,r1,[sp,#0x18]
0010c4  ed9d0b06          VLDR     d0,[sp,#0x18]
0010c8  ec510b10          VMOV     r0,r1,d0
0010cc  f7fffffe          BL       __aeabi_d2iz
0010d0  b200              SXTH     r0,r0
0010d2  900a              STR      r0,[sp,#0x28]
0010d4  980f              LDR      r0,[sp,#0x3c]
0010d6  f7fffffe          BL       __aeabi_f2d
0010da  ed1f0bfc          VLDR     d0,|L10.3308|
0010de  ec532b10          VMOV     r2,r3,d0
0010e2  e9cd0104          STRD     r0,r1,[sp,#0x10]
0010e6  ed9d0b04          VLDR     d0,[sp,#0x10]
0010ea  ec510b10          VMOV     r0,r1,d0
0010ee  f7fffffe          BL       __aeabi_dadd
0010f2  e9cd0106          STRD     r0,r1,[sp,#0x18]
0010f6  ed9d0b06          VLDR     d0,[sp,#0x18]
0010fa  ec510b10          VMOV     r0,r1,d0
0010fe  f7fffffe          BL       __aeabi_d2iz
001102  e000              B        |L10.4358|
                  |L10.4356|
001104  e0b5              B        |L10.4722|
                  |L10.4358|
001106  b200              SXTH     r0,r0
001108  9009              STR      r0,[sp,#0x24]
00110a  9810              LDR      r0,[sp,#0x40]
00110c  f7fffffe          BL       __aeabi_f2d
001110  ed9f0b0a          VLDR     d0,|L10.4412|
001114  ec532b10          VMOV     r2,r3,d0
001118  e9cd0104          STRD     r0,r1,[sp,#0x10]
00111c  ed9d0b04          VLDR     d0,[sp,#0x10]
001120  ec510b10          VMOV     r0,r1,d0
001124  e00e              B        |L10.4420|
001126  0000              DCW      0x0000
                  |L10.4392|
001128  00000000          DCFD     0x406e000000000000 ; 240
00112c  406e0000
                  |L10.4400|
                          DCD      eGFX_BackBuffer
                  |L10.4404|
                          DCD      FFT_PowerSpectrum
                  |L10.4408|
                          DCD      TrebleSliderValue
                  |L10.4412|
00113c  00000000          DCFD     0x405e000000000000 ; 120
001140  405e0000
                  |L10.4420|
001144  f7fffffe          BL       __aeabi_dadd
001148  e9cd0106          STRD     r0,r1,[sp,#0x18]
00114c  ed9d0b06          VLDR     d0,[sp,#0x18]
001150  ec510b10          VMOV     r0,r1,d0
001154  f7fffffe          BL       __aeabi_d2iz
001158  b200              SXTH     r0,r0
00115a  9008              STR      r0,[sp,#0x20]
00115c  f44f30fc          MOV      r0,#0x1f800
001160  9000              STR      r0,[sp,#0]
001162  4845              LDR      r0,|L10.4728|
001164  a908              ADD      r1,sp,#0x20
001166  c90e              LDM      r1,{r1-r3}
001168  f7fffffe          BL       eGFX_DrawHline
;;;619    												Point1+eGFX_PHYSICAL_SCREEN_SIZE_X/4.0,
;;;620    												Point2+eGFX_PHYSICAL_SCREEN_SIZE_X/4.0,									
;;;621    												Point2+eGFX_PHYSICAL_SCREEN_SIZE_Y/2.0 - FFT_PowerSpectrum[i]/15*TrebleSliderValue,																					
;;;622    												eGFX_RGB888_TO_RGB565(255,0,0)  												
;;;623    												);	
;;;624    								eGFX_DrawHline(&eGFX_BackBuffer,                       
00116c  4943              LDR      r1,|L10.4732|
00116e  9811              LDR      r0,[sp,#0x44]
001170  eb010080          ADD      r0,r1,r0,LSL #2
001174  edd00a00          VLDR     s1,[r0,#0]
001178  eeb21a0e          VMOV.F32 s2,#15.00000000
00117c  ee800a81          VDIV.F32 s0,s1,s2
001180  483f              LDR      r0,|L10.4736|
001182  edd00a00          VLDR     s1,[r0,#0]
001186  ee200a20          VMUL.F32 s0,s0,s1
00118a  ed8d0a01          VSTR     s0,[sp,#4]
00118e  9801              LDR      r0,[sp,#4]
001190  f7fffffe          BL       __aeabi_f2d
001194  e9cd0104          STRD     r0,r1,[sp,#0x10]
001198  980c              LDR      r0,[sp,#0x30]
00119a  f7fffffe          BL       __aeabi_f2d
00119e  ed9f0b39          VLDR     d0,|L10.4740|
0011a2  ec532b10          VMOV     r2,r3,d0
0011a6  e9cd0100          STRD     r0,r1,[sp,#0]
0011aa  ed9d0b00          VLDR     d0,[sp,#0]
0011ae  ec510b10          VMOV     r0,r1,d0
0011b2  f7fffffe          BL       __aeabi_dadd
0011b6  e9cd0102          STRD     r0,r1,[sp,#8]
0011ba  ed9d0b04          VLDR     d0,[sp,#0x10]
0011be  ec532b10          VMOV     r2,r3,d0
0011c2  ed9d0b02          VLDR     d0,[sp,#8]
0011c6  ec510b10          VMOV     r0,r1,d0
0011ca  f7fffffe          BL       __aeabi_dsub
0011ce  e9cd0106          STRD     r0,r1,[sp,#0x18]
0011d2  ed9d0b06          VLDR     d0,[sp,#0x18]
0011d6  ec510b10          VMOV     r0,r1,d0
0011da  f7fffffe          BL       __aeabi_d2iz
0011de  b200              SXTH     r0,r0
0011e0  900a              STR      r0,[sp,#0x28]
0011e2  980c              LDR      r0,[sp,#0x30]
0011e4  f7fffffe          BL       __aeabi_f2d
0011e8  ed1f0b2c          VLDR     d0,|L10.4412|
0011ec  ec532b10          VMOV     r2,r3,d0
0011f0  e9cd0104          STRD     r0,r1,[sp,#0x10]
0011f4  ed9d0b04          VLDR     d0,[sp,#0x10]
0011f8  ec510b10          VMOV     r0,r1,d0
0011fc  f7fffffe          BL       __aeabi_dadd
001200  e9cd0106          STRD     r0,r1,[sp,#0x18]
001204  ed9d0b06          VLDR     d0,[sp,#0x18]
001208  ec510b10          VMOV     r0,r1,d0
00120c  f7fffffe          BL       __aeabi_d2iz
001210  b200              SXTH     r0,r0
001212  9009              STR      r0,[sp,#0x24]
001214  980d              LDR      r0,[sp,#0x34]
001216  f7fffffe          BL       __aeabi_f2d
00121a  ed1f0b38          VLDR     d0,|L10.4412|
00121e  ec532b10          VMOV     r2,r3,d0
001222  e9cd0104          STRD     r0,r1,[sp,#0x10]
001226  ed9d0b04          VLDR     d0,[sp,#0x10]
00122a  ec510b10          VMOV     r0,r1,d0
00122e  f7fffffe          BL       __aeabi_dadd
001232  e9cd0106          STRD     r0,r1,[sp,#0x18]
001236  ed9d0b06          VLDR     d0,[sp,#0x18]
00123a  ec510b10          VMOV     r0,r1,d0
00123e  f7fffffe          BL       __aeabi_d2iz
001242  b200              SXTH     r0,r0
001244  9008              STR      r0,[sp,#0x20]
001246  f44f30fc          MOV      r0,#0x1f800
00124a  9000              STR      r0,[sp,#0]
00124c  480a              LDR      r0,|L10.4728|
00124e  a908              ADD      r1,sp,#0x20
001250  c90e              LDM      r1,{r1-r3}
001252  f7fffffe          BL       eGFX_DrawHline
                  |L10.4694|
001256  9811              LDR      r0,[sp,#0x44]         ;505
001258  1c40              ADDS     r0,r0,#1              ;505
00125a  9011              STR      r0,[sp,#0x44]         ;505
                  |L10.4700|
00125c  9811              LDR      r0,[sp,#0x44]         ;505
00125e  f5b07ff0          CMP      r0,#0x1e0             ;505
001262  f6feaef3          BLT      |L10.76|
;;;625    												Point4+eGFX_PHYSICAL_SCREEN_SIZE_X/4.0,
;;;626    												Point5+eGFX_PHYSICAL_SCREEN_SIZE_X/4.0,									
;;;627    												Point5+eGFX_PHYSICAL_SCREEN_SIZE_Y/2.0 - FFT_PowerSpectrum[i]/15*TrebleSliderValue,																					
;;;628    												eGFX_RGB888_TO_RGB565(255,0,0)  												
;;;629    												);	
;;;630    											}
;;;631    				}	
;;;632    				
;;;633    				
;;;634    														
;;;635    				eGFX_Dump(&eGFX_BackBuffer);
001266  4804              LDR      r0,|L10.4728|
001268  f7fffffe          BL       eGFX_Dump
;;;636    					
;;;637    				NextBufferReady = 0;
00126c  2000              MOVS     r0,#0
00126e  4907              LDR      r1,|L10.4748|
001270  6008              STR      r0,[r1,#0]  ; NextBufferReady
                  |L10.4722|
;;;638    		}
;;;639    	}
001272  b013              ADD      sp,sp,#0x4c
001274  bd00              POP      {pc}
;;;640    
                          ENDP

001276  0000              DCW      0x0000
                  |L10.4728|
                          DCD      eGFX_BackBuffer
                  |L10.4732|
                          DCD      FFT_PowerSpectrum
                  |L10.4736|
                          DCD      TrebleSliderValue
                  |L10.4740|
001284  00000000          DCFD     0x4061000000000000 ; 136
001288  40610000
                  |L10.4748|
                          DCD      NextBufferReady

                          AREA ||i.SysTick_Handler||, CODE, READONLY, ALIGN=2

                  SysTick_Handler PROC
;;;185    
;;;186    void SysTick_Handler()
000000  2140              MOVS     r1,#0x40
;;;187    {
;;;188    	GPIO->NOT[TEST1_PORT] = 1<<TEST1_PIN;
000002  4801              LDR      r0,|L11.8|
000004  6101              STR      r1,[r0,#0x10]
;;;189    }
000006  4770              BX       lr
;;;190    void HomeScreen()
                          ENDP

                  |L11.8|
                          DCD      0x4008e300

                          AREA ||i.main||, CODE, READONLY, ALIGN=2

                  main PROC
;;;923    	}
;;;924    int main(void)
000000  b088              SUB      sp,sp,#0x20
;;;925    {
;;;926    		CLOCK_EnableClock(kCLOCK_InputMux);
000002  200b              MOVS     r0,#0xb
000004  f7fffffe          BL       CLOCK_EnableClock
;;;927    		
;;;928        CLOCK_EnableClock(kCLOCK_Iocon);
000008  200d              MOVS     r0,#0xd
00000a  f7fffffe          BL       CLOCK_EnableClock
;;;929    	
;;;930        CLOCK_EnableClock(kCLOCK_Gpio0);
00000e  200e              MOVS     r0,#0xe
000010  f7fffffe          BL       CLOCK_EnableClock
;;;931      
;;;932        CLOCK_EnableClock(kCLOCK_Gpio1);
000014  200f              MOVS     r0,#0xf
000016  f7fffffe          BL       CLOCK_EnableClock
;;;933    		
;;;934        CLOCK_EnableClock(kCLOCK_Gpio2);
00001a  2010              MOVS     r0,#0x10
00001c  f7fffffe          BL       CLOCK_EnableClock
;;;935      
;;;936        CLOCK_EnableClock(kCLOCK_Gpio3);
000020  2011              MOVS     r0,#0x11
000022  f7fffffe          BL       CLOCK_EnableClock
;;;937    			
;;;938        CLOCK_EnableClock(kCLOCK_Gpio4);
000026  f2402009          MOV      r0,#0x209
00002a  f7fffffe          BL       CLOCK_EnableClock
;;;939    
;;;940        CLOCK_AttachClk(BOARD_DEBUG_UART_CLK_ATTACH);
00002e  f44f7086          MOV      r0,#0x10c
000032  f7fffffe          BL       CLOCK_AttachClk
;;;941    
;;;942        BOARD_InitPins();
000036  f7fffffe          BL       BOARD_InitPins
;;;943    	
;;;944        BOARD_BootClock_PLL_RUN();
00003a  f7fffffe          BL       BOARD_BootClock_PLL_RUN
;;;945      
;;;946        BOARD_InitDebugConsole();
00003e  f7fffffe          BL       BOARD_InitDebugConsole
;;;947    		
;;;948    		BOARD_InitSPIFI_ExternalFlash();
000042  f7fffffe          BL       BOARD_InitSPIFI_ExternalFlash
;;;949    
;;;950    		BOARD_InitSDRAM();
000046  f7fffffe          BL       BOARD_InitSDRAM
;;;951    
;;;952    		eGFX_InitDriver();
00004a  f7fffffe          BL       eGFX_InitDriver
;;;953    
;;;954        InitMicBuffers();
00004e  f7fffffe          BL       InitMicBuffers
;;;955    
;;;956       	Init_DMIC();
000052  f7fffffe          BL       Init_DMIC
;;;957    	
;;;958    	  IOCON_PinMuxSet(IOCON, TEST1_PORT, TEST1_PIN, IOCON_FUNC0 |
000056  f44f7380          MOV      r3,#0x100
00005a  2206              MOVS     r2,#6
00005c  2104              MOVS     r1,#4
00005e  4873              LDR      r0,|L12.556|
000060  f7fffffe          BL       IOCON_PinMuxSet
;;;959    		IOCON_MODE_INACT| IOCON_DIGITAL_EN);
;;;960    
;;;961        IOCON_PinMuxSet(IOCON, TEST2_PORT, TEST2_PIN, IOCON_FUNC0 |
000064  f44f7380          MOV      r3,#0x100
000068  2215              MOVS     r2,#0x15
00006a  2103              MOVS     r1,#3
00006c  486f              LDR      r0,|L12.556|
00006e  f7fffffe          BL       IOCON_PinMuxSet
;;;962    		IOCON_MODE_INACT| IOCON_DIGITAL_EN);
;;;963    		
;;;964        GPIO->DIR[TEST1_PORT] |= 1<<TEST1_PIN;
000072  486f              LDR      r0,|L12.560|
000074  6900              LDR      r0,[r0,#0x10]
000076  f0400140          ORR      r1,r0,#0x40
00007a  486d              LDR      r0,|L12.560|
00007c  6101              STR      r1,[r0,#0x10]
;;;965    	 
;;;966    	  GPIO->DIR[TEST2_PORT] |= 1<<TEST2_PIN;
00007e  68c0              LDR      r0,[r0,#0xc]
000080  f4401100          ORR      r1,r0,#0x200000
000084  486a              LDR      r0,|L12.560|
000086  60c1              STR      r1,[r0,#0xc]
;;;967    	 
;;;968    	  SysTick_Config(SystemCoreClock/1000);
000088  486a              LDR      r0,|L12.564|
00008a  6800              LDR      r0,[r0,#0]  ; SystemCoreClock
00008c  f44f727a          MOV      r2,#0x3e8
000090  fbb0f1f2          UDIV     r1,r0,r2
000094  1e48              SUBS     r0,r1,#1
000096  f1b07f80          CMP      r0,#0x1000000
00009a  d300              BCC      |L12.158|
00009c  e01b              B        |L12.214|
                  |L12.158|
00009e  1e48              SUBS     r0,r1,#1
0000a0  f04f22e0          MOV      r2,#0xe000e000
0000a4  6150              STR      r0,[r2,#0x14]
0000a6  1750              ASRS     r0,r2,#29
0000a8  2207              MOVS     r2,#7
0000aa  2800              CMP      r0,#0
0000ac  da07              BGE      |L12.190|
0000ae  0753              LSLS     r3,r2,#29
0000b0  0e1d              LSRS     r5,r3,#24
0000b2  4b61              LDR      r3,|L12.568|
0000b4  f000040f          AND      r4,r0,#0xf
0000b8  1f24              SUBS     r4,r4,#4
0000ba  551d              STRB     r5,[r3,r4]
0000bc  e003              B        |L12.198|
                  |L12.190|
0000be  0753              LSLS     r3,r2,#29
0000c0  0e1c              LSRS     r4,r3,#24
0000c2  4b5e              LDR      r3,|L12.572|
0000c4  541c              STRB     r4,[r3,r0]
                  |L12.198|
0000c6  bf00              NOP      
0000c8  2000              MOVS     r0,#0
0000ca  f04f22e0          MOV      r2,#0xe000e000
0000ce  6190              STR      r0,[r2,#0x18]
0000d0  2007              MOVS     r0,#7
0000d2  6110              STR      r0,[r2,#0x10]
0000d4  bf00              NOP      
                  |L12.214|
;;;969    
;;;970    	  arm_rfft_fast_init_f32(&MyFFT,1024);
0000d6  f44f6180          MOV      r1,#0x400
0000da  4859              LDR      r0,|L12.576|
0000dc  f7fffffe          BL       arm_rfft_fast_init_f32
;;;971    		
;;;972    		FT5406_Init(&touch_handle,I2C2);
0000e0  4958              LDR      r1,|L12.580|
0000e2  4859              LDR      r0,|L12.584|
0000e4  f7fffffe          BL       FT5406_Init
;;;973    		
;;;974    		int32_t x5=10,y5=10;
0000e8  200a              MOVS     r0,#0xa
0000ea  9007              STR      r0,[sp,#0x1c]
0000ec  9006              STR      r0,[sp,#0x18]
;;;975    		int32_t x6=10,y6=10;
0000ee  9005              STR      r0,[sp,#0x14]
0000f0  9004              STR      r0,[sp,#0x10]
;;;976    		int32_t x7=10,y7=10;
0000f2  9003              STR      r0,[sp,#0xc]
0000f4  9002              STR      r0,[sp,#8]
;;;977    		int32_t x8=10,y8=10;
0000f6  9001              STR      r0,[sp,#4]
0000f8  9000              STR      r0,[sp,#0]
;;;978    
;;;979    	while(1)
0000fa  e096              B        |L12.554|
                  |L12.252|
;;;980    	{
;;;981    		
;;;982    		// Top Left Button
;;;983    		if (kStatus_Success == FT5406_GetSingleTouch(&touch_handle, &touch_event, &y5, &x5))
0000fc  ab07              ADD      r3,sp,#0x1c
0000fe  aa06              ADD      r2,sp,#0x18
000100  4952              LDR      r1,|L12.588|
000102  4851              LDR      r0,|L12.584|
000104  f7fffffe          BL       FT5406_GetSingleTouch
000108  b9a8              CBNZ     r0,|L12.310|
;;;984    						{
;;;985    							if (touch_event == kTouch_Down || touch_event == kTouch_Up)
00010a  4850              LDR      r0,|L12.588|
00010c  7800              LDRB     r0,[r0,#0]  ; touch_event
00010e  b118              CBZ      r0,|L12.280|
000110  484e              LDR      r0,|L12.588|
000112  7800              LDRB     r0,[r0,#0]  ; touch_event
000114  2801              CMP      r0,#1
000116  d10e              BNE      |L12.310|
                  |L12.280|
;;;986    											{
;;;987    										if(	 x5>=BUTTON_REGION_START_X && x5<=BUTTON_REGION_STOP_X
000118  9807              LDR      r0,[sp,#0x1c]
00011a  2800              CMP      r0,#0
00011c  db0b              BLT      |L12.310|
00011e  9807              LDR      r0,[sp,#0x1c]
000120  284b              CMP      r0,#0x4b
000122  dc08              BGT      |L12.310|
;;;988    														&& y5>BUTTON_REGION_START_Y && y5<=BUTTON_REGION_STOP_Y) // Top Left Corner
000124  9806              LDR      r0,[sp,#0x18]
000126  2800              CMP      r0,#0
000128  dd05              BLE      |L12.310|
00012a  9806              LDR      r0,[sp,#0x18]
00012c  284b              CMP      r0,#0x4b
00012e  dc02              BGT      |L12.310|
;;;989    														{
;;;990    																state = Equalizer;
000130  2004              MOVS     r0,#4
000132  4947              LDR      r1,|L12.592|
000134  7008              STRB     r0,[r1,#0]
                  |L12.310|
;;;991    														
;;;992    														}
;;;993    											}
;;;994    							}
;;;995    						
;;;996    	// Top Right Button
;;;997    		if (kStatus_Success == FT5406_GetSingleTouch(&touch_handle, &touch_event, &y6, &x6))
000136  ab05              ADD      r3,sp,#0x14
000138  aa04              ADD      r2,sp,#0x10
00013a  4944              LDR      r1,|L12.588|
00013c  4842              LDR      r0,|L12.584|
00013e  f7fffffe          BL       FT5406_GetSingleTouch
000142  b9b8              CBNZ     r0,|L12.372|
;;;998    						{
;;;999    							if (touch_event == kTouch_Down || touch_event == kTouch_Up)
000144  4841              LDR      r0,|L12.588|
000146  7800              LDRB     r0,[r0,#0]  ; touch_event
000148  b118              CBZ      r0,|L12.338|
00014a  4840              LDR      r0,|L12.588|
00014c  7800              LDRB     r0,[r0,#0]  ; touch_event
00014e  2801              CMP      r0,#1
000150  d110              BNE      |L12.372|
                  |L12.338|
;;;1000   											{
;;;1001   										if(	 x6>=BUTTON2_REGION_START_X && x6<=BUTTON2_REGION_STOP_X
000152  9805              LDR      r0,[sp,#0x14]
000154  f5b07fbe          CMP      r0,#0x17c
000158  db0c              BLT      |L12.372|
00015a  9805              LDR      r0,[sp,#0x14]
00015c  f5b07ff0          CMP      r0,#0x1e0
000160  dc08              BGT      |L12.372|
;;;1002   														&& y6>BUTTON2_REGION_START_Y && y6<=BUTTON2_REGION_STOP_Y)
000162  9804              LDR      r0,[sp,#0x10]
000164  2800              CMP      r0,#0
000166  dd05              BLE      |L12.372|
000168  9804              LDR      r0,[sp,#0x10]
00016a  2864              CMP      r0,#0x64
00016c  dc02              BGT      |L12.372|
;;;1003   														{
;;;1004   																state = Home;
00016e  2000              MOVS     r0,#0
000170  4937              LDR      r1,|L12.592|
000172  7008              STRB     r0,[r1,#0]
                  |L12.372|
;;;1005   														}
;;;1006   											}
;;;1007   							}
;;;1008   						
;;;1009   		// Bottom Right Button		
;;;1010   		if (kStatus_Success == FT5406_GetSingleTouch(&touch_handle, &touch_event, &y7, &x7))
000174  ab03              ADD      r3,sp,#0xc
000176  aa02              ADD      r2,sp,#8
000178  4934              LDR      r1,|L12.588|
00017a  4833              LDR      r0,|L12.584|
00017c  f7fffffe          BL       FT5406_GetSingleTouch
000180  b9c0              CBNZ     r0,|L12.436|
;;;1011   						{
;;;1012   							if (touch_event == kTouch_Down || touch_event == kTouch_Up)
000182  4832              LDR      r0,|L12.588|
000184  7800              LDRB     r0,[r0,#0]  ; touch_event
000186  b118              CBZ      r0,|L12.400|
000188  4830              LDR      r0,|L12.588|
00018a  7800              LDRB     r0,[r0,#0]  ; touch_event
00018c  2801              CMP      r0,#1
00018e  d111              BNE      |L12.436|
                  |L12.400|
;;;1013   											{
;;;1014   										if(	 x7>=BUTTON3_REGION_START_X && x7<=BUTTON3_REGION_STOP_X
000190  9803              LDR      r0,[sp,#0xc]
000192  f5b07fca          CMP      r0,#0x194
000196  dd0d              BLE      |L12.436|
000198  9803              LDR      r0,[sp,#0xc]
00019a  f5b07ff0          CMP      r0,#0x1e0
00019e  dc09              BGT      |L12.436|
;;;1015   														&& y7>BUTTON3_REGION_START_Y && y7<=BUTTON3_REGION_STOP_Y)
0001a0  9802              LDR      r0,[sp,#8]
0001a2  28c5              CMP      r0,#0xc5
0001a4  dd06              BLE      |L12.436|
0001a6  9802              LDR      r0,[sp,#8]
0001a8  f5b07f88          CMP      r0,#0x110
0001ac  dc02              BGT      |L12.436|
;;;1016   														{
;;;1017   																state = Circles;
0001ae  2001              MOVS     r0,#1
0001b0  4927              LDR      r1,|L12.592|
0001b2  7008              STRB     r0,[r1,#0]
                  |L12.436|
;;;1018   														}
;;;1019   											}
;;;1020   							}
;;;1021   						
;;;1022   		// Bottom Left Button
;;;1023   		if (kStatus_Success == FT5406_GetSingleTouch(&touch_handle, &touch_event, &y8, &x8))
0001b4  ab01              ADD      r3,sp,#4
0001b6  466a              MOV      r2,sp
0001b8  4924              LDR      r1,|L12.588|
0001ba  4823              LDR      r0,|L12.584|
0001bc  f7fffffe          BL       FT5406_GetSingleTouch
0001c0  b9b0              CBNZ     r0,|L12.496|
;;;1024   						{
;;;1025   							if (touch_event == kTouch_Down || touch_event == kTouch_Up)
0001c2  4822              LDR      r0,|L12.588|
0001c4  7800              LDRB     r0,[r0,#0]  ; touch_event
0001c6  b118              CBZ      r0,|L12.464|
0001c8  4820              LDR      r0,|L12.588|
0001ca  7800              LDRB     r0,[r0,#0]  ; touch_event
0001cc  2801              CMP      r0,#1
0001ce  d10f              BNE      |L12.496|
                  |L12.464|
;;;1026   											{
;;;1027   										if(	 x8>=BUTTON4_REGION_START_X && x8<=BUTTON4_REGION_STOP_X
0001d0  9801              LDR      r0,[sp,#4]
0001d2  2800              CMP      r0,#0
0001d4  db0c              BLT      |L12.496|
0001d6  9801              LDR      r0,[sp,#4]
0001d8  284b              CMP      r0,#0x4b
0001da  dc09              BGT      |L12.496|
;;;1028   														&& y8>BUTTON4_REGION_START_Y && y8<=BUTTON4_REGION_STOP_Y)
0001dc  9800              LDR      r0,[sp,#0]
0001de  28c5              CMP      r0,#0xc5
0001e0  dd06              BLE      |L12.496|
0001e2  9800              LDR      r0,[sp,#0]
0001e4  f5b07f88          CMP      r0,#0x110
0001e8  dc02              BGT      |L12.496|
;;;1029   														{
;;;1030   																state = Shattered;
0001ea  2002              MOVS     r0,#2
0001ec  4918              LDR      r1,|L12.592|
0001ee  7008              STRB     r0,[r1,#0]
                  |L12.496|
;;;1031   														}
;;;1032   											}
;;;1033   							}
;;;1034   						
;;;1035   		if(state == Home){
0001f0  4817              LDR      r0,|L12.592|
0001f2  7800              LDRB     r0,[r0,#0]  ; state
0001f4  b908              CBNZ     r0,|L12.506|
;;;1036   			HomeScreen();
0001f6  f7fffffe          BL       HomeScreen
                  |L12.506|
;;;1037   		}
;;;1038   		if(state == Circles){
0001fa  4815              LDR      r0,|L12.592|
0001fc  7800              LDRB     r0,[r0,#0]  ; state
0001fe  2801              CMP      r0,#1
000200  d101              BNE      |L12.518|
;;;1039   			CirclesVisual();
000202  f7fffffe          BL       CirclesVisual
                  |L12.518|
;;;1040   		}
;;;1041   		if(state == Shattered){
000206  4812              LDR      r0,|L12.592|
000208  7800              LDRB     r0,[r0,#0]  ; state
00020a  2802              CMP      r0,#2
00020c  d101              BNE      |L12.530|
;;;1042   			ShatteredVisual();
00020e  f7fffffe          BL       ShatteredVisual
                  |L12.530|
;;;1043   		}
;;;1044   		if(state == Lines){
000212  480f              LDR      r0,|L12.592|
000214  7800              LDRB     r0,[r0,#0]  ; state
000216  2803              CMP      r0,#3
000218  d101              BNE      |L12.542|
;;;1045   			LinesVisual();
00021a  f7fffffe          BL       LinesVisual
                  |L12.542|
;;;1046   		}
;;;1047   		if(state == Equalizer){
00021e  480c              LDR      r0,|L12.592|
000220  7800              LDRB     r0,[r0,#0]  ; state
000222  2804              CMP      r0,#4
000224  d101              BNE      |L12.554|
;;;1048   			EqualizerScreen();
000226  f7fffffe          BL       EqualizerScreen
                  |L12.554|
00022a  e767              B        |L12.252|
;;;1049   		} 
;;;1050   		
;;;1051   		}
;;;1052   
;;;1053   }
;;;1054   
                          ENDP

                  |L12.556|
                          DCD      0x40001000
                  |L12.560|
                          DCD      0x4008e000
                  |L12.564|
                          DCD      SystemCoreClock
                  |L12.568|
                          DCD      0xe000ed18
                  |L12.572|
                          DCD      0xe000e400
                  |L12.576|
                          DCD      MyFFT
                  |L12.580|
                          DCD      0x40088000
                  |L12.584|
                          DCD      touch_handle
                  |L12.588|
                          DCD      touch_event
                  |L12.592|
                          DCD      state

                          AREA ||.bss||, DATA, NOINIT, ALIGN=2

                  MicBuffer1
                          %        4096
                  MicBuffer2
                          %        4096
                  MyFFT
                          %        24
                  FFT_RawDataOut
                          %        4096
                  FFT_PowerSpectrum
                          %        4096
                  touch_handle
                          %        60

                          AREA ||.data||, DATA, ALIGN=2

                  MicBuffer
                          DCD      0x00000000
                  BackgroundMicBuffer
                          DCD      0x00000000
                  BackgroundBufferIdx
                          DCD      0x00000000
                  NextBufferReady
                          DCD      0x00000000
                  BuffersCaptured
                          DCD      0x00000000
                  x
                          DCD      0x0000000a
                  y
                          DCD      0x0000000a
                  ||x2||
                          DCD      0x0000000a
                  ||y2||
                          DCD      0x0000000a
                  ||x3||
                          DCD      0x0000000a
                  ||y3||
                          DCD      0x0000000a
                  ||x4||
                          DCD      0x0000000a
                  ||y4||
                          DCD      0x0000000a
                  touch_event
000034  00                DCB      0x00
                  state
000035  000000            DCB      0x00,0x00,0x00
                  BassSliderPosition
                          DCD      0x0000007b
                  MidSliderPosition
                          DCD      0x0000007b
                  TrebleSliderPosition
                          DCD      0x0000007b
                  VolumeSliderPosition
                          DCD      0x0000007b
                  BassSliderValue
                          DCD      0x00000000
                  MidSliderValue
                          DCD      0x00000000
                  TrebleSliderValue
                          DCD      0x00000000
                  VolumeSliderValue
                          DCD      0x00000000

;*** Start embedded assembler ***

#line 1 "SRC\\main.c"
	AREA ||.rev16_text||, CODE
	THUMB
	EXPORT |__asm___6_main_c_a7cd7a38____REV16|
#line 388 ".\\SRC\\System\\CMSIS\\Include\\cmsis_armcc.h"
|__asm___6_main_c_a7cd7a38____REV16| PROC
#line 389

 rev16 r0, r0
 bx lr
	ENDP
	AREA ||.revsh_text||, CODE
	THUMB
	EXPORT |__asm___6_main_c_a7cd7a38____REVSH|
#line 402
|__asm___6_main_c_a7cd7a38____REVSH| PROC
#line 403

 revsh r0, r0
 bx lr
	ENDP
	AREA ||.rrx_text||, CODE
	THUMB
	EXPORT |__asm___6_main_c_a7cd7a38____RRX|
#line 587
|__asm___6_main_c_a7cd7a38____RRX| PROC
#line 588

 rrx r0, r0
 bx lr
	ENDP

;*** End   embedded assembler ***

                  __ARM_use_no_argv EQU 0
